ARM GAS  C:\Users\Chris\AppData\Local\Temp/ccgvbaaa.s 			page 1


   1              		.cpu arm7tdmi
   2              		.fpu softvfp
   3              		.eabi_attribute 20, 1
   4              		.eabi_attribute 21, 1
   5              		.eabi_attribute 23, 3
   6              		.eabi_attribute 24, 1
   7              		.eabi_attribute 25, 1
   8              		.eabi_attribute 26, 1
   9              		.eabi_attribute 30, 2
  10              		.eabi_attribute 18, 4
  11              		.file	"nothrow.cpp"
  18 0000 A5000000 		.text
  18      02008900 
  18      00000201 
  18      FB0E0D00 
  18      01010101 
  19              	.Ltext0:
  20              		.align	2
  21              		.global	_Z5raisei
  22              		.type	_Z5raisei, %function
  23              	_Z5raisei:
  24              		.fnstart
  25              	.LFB4:
  26              		.file 1 "nothrow.cpp"
   1:nothrow.cpp   **** #include <stdlib.h>                   // for malloc and free
   2:nothrow.cpp   **** 
   3:nothrow.cpp   **** void *operator new(size_t size) throw() { return malloc(size); }
   4:nothrow.cpp   **** 
   5:nothrow.cpp   **** void operator delete(void *p) throw() { free(p); }
   6:nothrow.cpp   **** 
   7:nothrow.cpp   **** int raise(int sig) { return 0; }
  27              	pports interworking.
  28              		@ args = 0, pretend = 0, frame = 0
  29              		@ frame_needed = 0, uses_anonymous_args = 0
  30              		@ link register save eliminated.
  31              	.LVL0:
  32              		.loc 1 7 0
  33              		mov	r0, #0
  34 0000 0000A0E3 	.LVL1:
  35              		bx	lr
  36 0004 1EFF2FE1 	.LFE4:
  37              		.cantunwind
  38              		.fnend
  39              		.size	_Z5raisei, .-_Z5raisei
  40              		.align	2
  41              		.global	__aeabi_atexit
  42              		.type	__aeabi_atexit, %function
  43              	__aeabi_atexit:
  44              		.fnstart
  45              	.LFB5:
  46              		.loc 1 11 0
ARM GAS  C:\Users\Chris\AppData\Local\Temp/ccgvbaaa.s 			page 2


   8:nothrow.cpp   **** n 0; }
   9:nothrow.cpp   **** 
  10:nothrow.cpp   **** extern "C" int __aeabi_atexit(void *object,
  11:nothrow.cpp   ****                               void (*destructor)(void *),
  47              	 interworking.
  48              		@ args = 0, pretend = 0, frame = 0
  49              		@ frame_needed = 0, uses_anonymous_args = 0
  50              		@ link register save eliminated.
  51              	.LVL2:
  52              		.loc 1 14 0
  12:nothrow.cpp   **** *),
  13:nothrow.cpp   ****                               void *dso_handle)
  14:nothrow.cpp   **** {
  53              	0, #0
  54 0008 0000A0E3 	.LVL3:
  55              		bx	lr
  56 000c 1EFF2FE1 	.LFE5:
  57              		.cantunwind
  58              		.fnend
  59              		.size	__aeabi_atexit, .-__aeabi_atexit
  60              		.align	2
  61              		.global	_ZdlPv
  62              		.type	_ZdlPv, %function
  63              	_ZdlPv:
  64              		.fnstart
  65              	.LFB3:
  66              		.loc 1 5 0
  67              		@ Function supports interworking.
  68              		@ args = 0, pretend = 0, frame = 0
  69              		@ frame_needed = 1, uses_anonymous_args = 0
  70              	.LVL4:
  71              		mov	ip, sp
  72 0010 0DC0A0E1 	.LCFI0:
  73              		stmfd	sp!, {fp, ip, lr, pc}
  74 0014 00D82DE9 	.LCFI1:
  75              		sub	fp, ip, #4
  76 0018 04B04CE2 	.LCFI2:
  77              		.loc 1 5 0
  78              		bl	free
  79 001c FEFFFFEB 	.LVL5:
  80              		sub	sp, fp, #12
  81 0020 0CD04BE2 		ldmfd	sp, {fp, sp, lr}
  82 0024 00689DE8 		bx	lr
  83 0028 1EFF2FE1 	.LFE3:
  84              		.cantunwind
  85              		.fnend
  86              		.size	_ZdlPv, .-_ZdlPv
  87              		.align	2
  88              		.global	_Znwj
  89              		.type	_Znwj, %function
  90              	_Znwj:
  91              		.fnstart
  92              	.LFB2:
  93              		.loc 1 3 0
  94              		@ Function supports interworking.
  95              		@ args = 0, pretend = 0, frame = 0
  96              		@ frame_needed = 1, uses_anonymous_args = 0
ARM GAS  C:\Users\Chris\AppData\Local\Temp/ccgvbaaa.s 			page 3


  97              	.LVL6:
  98              		mov	ip, sp
  99 002c 0DC0A0E1 	.LCFI3:
 100              		stmfd	sp!, {fp, ip, lr, pc}
 101 0030 00D82DE9 	.LCFI4:
 102              		sub	fp, ip, #4
 103 0034 04B04CE2 	.LCFI5:
 104              		.loc 1 3 0
 105              		bl	malloc
 106 0038 FEFFFFEB 	.LVL7:
 107              		sub	sp, fp, #12
 108 003c 0CD04BE2 		ldmfd	sp, {fp, sp, lr}
 109 0040 00689DE8 		bx	lr
 110 0044 1EFF2FE1 	.LFE2:
 111              		.cantunwind
 112              		.fnend
 113              		.size	_Znwj, .-_Znwj
 114              		.section	.debug_frame,"",%progbits
 115              	.Lframe0:
 116              		.4byte	.LECIE0-.LSCIE0
 117 0000 0C000000 	.LSCIE0:
 118              		.4byte	0xffffffff
 119 0004 FFFFFFFF 		.byte	0x1
 120 0008 01       		.ascii	"\000"
 121 0009 00       		.uleb128 0x1
 122 000a 01       		.sleb128 -4
 123 000b 7C       		.byte	0xe
 124 000c 0E       		.byte	0xc
 125 000d 0C       		.uleb128 0xd
 126 000e 0D       		.uleb128 0x0
 127 000f 00       		.align	2
 128              	.LECIE0:
 129              	.LSFDE0:
 130              		.4byte	.LEFDE0-.LASFDE0
 131 0010 0C000000 	.LASFDE0:
 132              		.4byte	.Lframe0
 133 0014 00000000 		.4byte	.LFB4
 134 0018 00000000 		.4byte	.LFE4-.LFB4
 135 001c 08000000 		.align	2
 136              	.LEFDE0:
 137              	.LSFDE2:
 138              		.4byte	.LEFDE2-.LASFDE2
 139 0020 0C000000 	.LASFDE2:
 140              		.4byte	.Lframe0
 141 0024 00000000 		.4byte	.LFB5
 142 0028 08000000 		.4byte	.LFE5-.LFB5
 143 002c 08000000 		.align	2
 144              	.LEFDE2:
 145              	.LSFDE4:
 146              		.4byte	.LEFDE4-.LASFDE4
 147 0030 1C000000 	.LASFDE4:
 148              		.4byte	.Lframe0
 149 0034 00000000 		.4byte	.LFB3
 150 0038 10000000 		.4byte	.LFE3-.LFB3
 151 003c 1C000000 		.byte	0x4
 152 0040 44       		.4byte	.LCFI0-.LFB3
 153              		.byte	0xd
ARM GAS  C:\Users\Chris\AppData\Local\Temp/ccgvbaaa.s 			page 4


 154 0041 0D       		.uleb128 0xc
 155 0042 0C       		.byte	0x4
 156 0043 44       		.4byte	.LCFI1-.LCFI0
 157              		.byte	0x8e
 158 0044 8E       		.uleb128 0x2
 159 0045 02       		.byte	0x8d
 160 0046 8D       		.uleb128 0x3
 161 0047 03       		.byte	0x8b
 162 0048 8B       		.uleb128 0x4
 163 0049 04       		.byte	0x4
 164 004a 44       		.4byte	.LCFI2-.LCFI1
 165              		.byte	0xc
 166 004b 0C       		.uleb128 0xb
 167 004c 0B       		.uleb128 0x4
 168 004d 04       		.align	2
 169 004e 0000     	.LEFDE4:
 170              	.LSFDE6:
 171              		.4byte	.LEFDE6-.LASFDE6
 172 0050 1C000000 	.LASFDE6:
 173              		.4byte	.Lframe0
 174 0054 00000000 		.4byte	.LFB2
 175 0058 2C000000 		.4byte	.LFE2-.LFB2
 176 005c 1C000000 		.byte	0x4
 177 0060 44       		.4byte	.LCFI3-.LFB2
 178              		.byte	0xd
 179 0061 0D       		.uleb128 0xc
 180 0062 0C       		.byte	0x4
 181 0063 44       		.4byte	.LCFI4-.LCFI3
 182              		.byte	0x8e
 183 0064 8E       		.uleb128 0x2
 184 0065 02       		.byte	0x8d
 185 0066 8D       		.uleb128 0x3
 186 0067 03       		.byte	0x8b
 187 0068 8B       		.uleb128 0x4
 188 0069 04       		.byte	0x4
 189 006a 44       		.4byte	.LCFI5-.LCFI4
 190              		.byte	0xc
 191 006b 0C       		.uleb128 0xb
 192 006c 0B       		.uleb128 0x4
 193 006d 04       		.align	2
 194 006e 0000     	.LEFDE6:
 195              		.text
 196              	.Letext0: