ARM GAS  C:\Users\Chris\AppData\Local\Temp/ccSoaaaa.s 			page 1


   1              		.cpu arm7tdmi
   2              		.fpu softvfp
   3              		.eabi_attribute 20, 1
   4              		.eabi_attribute 21, 1
   5              		.eabi_attribute 23, 3
   6              		.eabi_attribute 24, 1
   7              		.eabi_attribute 25, 1
   8              		.eabi_attribute 26, 1
   9              		.eabi_attribute 30, 2
  10              		.eabi_attribute 18, 4
  11              		.file	"Serial.cpp"
  18 0000 33020000 		.text
  18      0200AC00 
  18      00000201 
  18      FB0E0D00 
  18      01010101 
  19              	.Ltext0:
  20              		.align	2
  21              		.global	_Z9SerialISRh
  22              		.type	_Z9SerialISRh, %function
  23              	_Z9SerialISRh:
  24              		.fnstart
  25              	.LFB2:
  26              		.file 1 "Serial.cpp"
   1:Serial.cpp    **** /******************************************************************************/
   2:Serial.cpp    **** /* SERIAL.C: Low Level Serial Routines                                        */
   3:Serial.cpp    **** /******************************************************************************/
   4:Serial.cpp    **** /* This file is part of the uVision/ARM development tools.                    */
   5:Serial.cpp    **** /* Copyright (c) 2005-2006 Keil Software. All rights reserved.                */
   6:Serial.cpp    **** /* This software may only be used under the terms of a valid, current,        */
   7:Serial.cpp    **** /* end user licence from KEIL for a compatible version of KEIL software       */
   8:Serial.cpp    **** /* development tools. Nothing else gives you the right to use this software.  */
   9:Serial.cpp    **** /******************************************************************************/
  10:Serial.cpp    **** 
  11:Serial.cpp    **** 
  12:Serial.cpp    **** #include <stdint.h>
  13:Serial.cpp    **** #include <LPC23xx.H>                     /* LPC23xx definitions               */
  14:Serial.cpp    **** #include "Serial.h"
  15:Serial.cpp    **** #include "type.h"
  16:Serial.cpp    **** #include "armVIC.h"
  17:Serial.cpp    **** #include "irq.h"
  18:Serial.cpp    **** #include "sys_config.h"
  19:Serial.cpp    **** 
  20:Serial.cpp    **** //**************************************
  21:Serial.cpp    **** //* TYPES
  22:Serial.cpp    **** //**************************************
  23:Serial.cpp    **** 
  24:Serial.cpp    **** /* The names for our UARTs */
  25:Serial.cpp    **** typedef enum {
  26:Serial.cpp    ****    UART0,
  27:Serial.cpp    ****    UART1,
ARM GAS  C:\Users\Chris\AppData\Local\Temp/ccSoaaaa.s 			page 2


  28:Serial.cpp    ****    UART2,
  29:Serial.cpp    ****    UART3,
  30:Serial.cpp    ****    NUM_UARTS
  31:Serial.cpp    **** } UART_NAME_T;
  32:Serial.cpp    **** 
  33:Serial.cpp    **** /* UART Register Description */
  34:Serial.cpp    **** typedef struct {
  35:Serial.cpp    **** 
  36:Serial.cpp    ****    union {
  37:Serial.cpp    ****       vuint32_t RBR; 
  38:Serial.cpp    ****       vuint32_t DLL;
  39:Serial.cpp    ****       vuint32_t THR;
  40:Serial.cpp    ****    } R1;
  41:Serial.cpp    **** 
  42:Serial.cpp    ****    union {
  43:Serial.cpp    ****       vuint32_t DLM;
  44:Serial.cpp    ****       vuint32_t R;
  45:Serial.cpp    ****       struct {
  46:Serial.cpp    ****          vuint32_t RBR    :1;
  47:Serial.cpp    ****          vuint32_t THRE   :1;
  48:Serial.cpp    ****          vuint32_t RLS    :1;
  49:Serial.cpp    ****          vuint32_t Spare2 :29;
  50:Serial.cpp    ****       }IER;
  51:Serial.cpp    ****    } R2;
  52:Serial.cpp    **** 
  53:Serial.cpp    ****    union {
  54:Serial.cpp    ****       vuint32_t IIR;
  55:Serial.cpp    ****       vuint32_t FCR;
  56:Serial.cpp    ****    } R3;
  57:Serial.cpp    **** 
  58:Serial.cpp    ****    vuint32_t LCR;
  59:Serial.cpp    ****    vuint32_t MCR;
  60:Serial.cpp    ****    vuint32_t LSR;
  61:Serial.cpp    ****    vuint32_t MSR;
  62:Serial.cpp    ****    vuint32_t SCR;
  63:Serial.cpp    ****    vuint64_t ACR;
  64:Serial.cpp    ****    vuint16_t FDR;
  65:Serial.cpp    **** } UART_REG_T;
  66:Serial.cpp    **** 
  67:Serial.cpp    **** /* UART Pins Description */
  68:Serial.cpp    **** typedef struct {
  69:Serial.cpp    ****    /* TX */
  70:Serial.cpp    ****       vuint64_t *TxSelReg;
  71:Serial.cpp    ****       uint32_t   TxSelValue;
  72:Serial.cpp    ****       uint32_t   TxMask;
  73:Serial.cpp    ****    /* RX */
  74:Serial.cpp    ****       vuint64_t *RxSelReg;
  75:Serial.cpp    ****       uint32_t   RxSelValue;
  76:Serial.cpp    ****       uint32_t   RxMask;
  77:Serial.cpp    **** } UART_PIN_T;
  78:Serial.cpp    **** 
  79:Serial.cpp    **** 
  80:Serial.cpp    **** /* UART interrupt Description */
  81:Serial.cpp    **** typedef struct {
  82:Serial.cpp    ****    uint32_t *  IntFunc;
  83:Serial.cpp    ****    uint8_t     IntNumber;
  84:Serial.cpp    ****    uint8_t     Priority;
ARM GAS  C:\Users\Chris\AppData\Local\Temp/ccSoaaaa.s 			page 3


  85:Serial.cpp    **** } INT_DESC_T;
  86:Serial.cpp    **** 
  87:Serial.cpp    **** /* High-level UART structure */
  88:Serial.cpp    **** typedef struct {
  89:Serial.cpp    **** 	volatile uint8_t Buffer[UART_BUFFSIZE];
  90:Serial.cpp    **** 	volatile uint32_t status;
  91:Serial.cpp    **** 	volatile uint16_t RxCnt;
  92:Serial.cpp    **** 	volatile uint16_t TxEmpy;
  93:Serial.cpp    **** } vUART_T;
  94:Serial.cpp    **** 
  95:Serial.cpp    **** //**************************************
  96:Serial.cpp    **** //* LOCAL FUNCTION PROTOTYPES
  97:Serial.cpp    **** //**************************************
  98:Serial.cpp    **** 
  99:Serial.cpp    **** void SerialISR(void) __attribute__((naked));
 100:Serial.cpp    **** void Serial0ISR(void) __attribute__((naked));
 101:Serial.cpp    **** void Serial1ISR(void) __attribute__((naked));
 102:Serial.cpp    **** void Serial2ISR(void) __attribute__((naked));
 103:Serial.cpp    **** void Serial3ISR(void) __attribute__((naked));
 104:Serial.cpp    **** 
 105:Serial.cpp    **** 
 106:Serial.cpp    **** //**************************************
 107:Serial.cpp    **** //* LOCAL VARIABLES
 108:Serial.cpp    **** //**************************************
 109:Serial.cpp    **** 
 110:Serial.cpp    **** /* The quad UART High-level data */
 111:Serial.cpp    **** volatile vUART_T uartData[NUM_UARTS];
 112:Serial.cpp    **** 
 113:Serial.cpp    **** 
 114:Serial.cpp    **** /* The quad UART Interrupts */
 115:Serial.cpp    **** volatile INT_DESC_T uartInts[NUM_UARTS] = {
 116:Serial.cpp    ****                                  {
 117:Serial.cpp    ****                                    /* IntFunc   */ (uint32_t *)Serial0ISR,
 118:Serial.cpp    ****                                    /* IntNumber */ UART0_INT,
 119:Serial.cpp    ****                                    /* Priority  */ HIGHEST_PRIORITY,
 120:Serial.cpp    ****                                  },
 121:Serial.cpp    ****                                  {
 122:Serial.cpp    ****                                    /* IntFunc   */ (uint32_t *)Serial1ISR,
 123:Serial.cpp    ****                                    /* IntNumber */ UART1_INT,
 124:Serial.cpp    ****                                    /* Priority  */ HIGHEST_PRIORITY,
 125:Serial.cpp    ****                                  },
 126:Serial.cpp    ****                                  {
 127:Serial.cpp    ****                                    /* IntFunc   */ (uint32_t *)Serial2ISR,
 128:Serial.cpp    ****                                    /* IntNumber */ UART2_INT,
 129:Serial.cpp    ****                                    /* Priority  */ HIGHEST_PRIORITY,
 130:Serial.cpp    ****                                  },
 131:Serial.cpp    ****                                  {
 132:Serial.cpp    ****                                    /* IntFunc   */ (uint32_t *)Serial3ISR,
 133:Serial.cpp    ****                                    /* IntNumber */ UART3_INT,
 134:Serial.cpp    ****                                    /* Priority  */ HIGHEST_PRIORITY,
 135:Serial.cpp    ****                                  },
 136:Serial.cpp    **** };
 137:Serial.cpp    **** 
 138:Serial.cpp    **** /* The quad UART pins */
 139:Serial.cpp    **** volatile UART_PIN_T uartPins[NUM_UARTS] = {
 140:Serial.cpp    ****                           {          
 141:Serial.cpp    ****                                       /* TxSelReg    */ (vuint64_t *)PINSEL_BASE_ADDR,
ARM GAS  C:\Users\Chris\AppData\Local\Temp/ccSoaaaa.s 			page 4


 142:Serial.cpp    ****                                       /* TxSelValue  */ (1UL<<4),
 143:Serial.cpp    ****                                       /* TxMask      */ (3UL<<4),
 144:Serial.cpp    ****                                       /* RxSelReg    */ (vuint64_t *)PINSEL_BASE_ADDR,
 145:Serial.cpp    ****                                       /* RxSelValue  */ (1UL<<6),
 146:Serial.cpp    ****                                       /* RxMask      */ (3UL<<6), 
 147:Serial.cpp    ****                           },
 148:Serial.cpp    ****                           {          
 149:Serial.cpp    ****                                       /* TxSelReg    */ (vuint64_t *)PINSEL0,
 150:Serial.cpp    ****                                       /* TxSelValue  */ (1UL<<30),
 151:Serial.cpp    ****                                       /* TxMask      */ (3UL<<30),
 152:Serial.cpp    ****                                       /* RxSelReg    */ (vuint64_t *)PINSEL1,
 153:Serial.cpp    ****                                       /* RxSelValue  */ (1UL<<0),
 154:Serial.cpp    ****                                       /* RxMask      */ (3UL<<0), 
 155:Serial.cpp    ****                           },
 156:Serial.cpp    ****                           {          
 157:Serial.cpp    ****                                       /* TxSelReg    */ (vuint64_t *)PINSEL0,
 158:Serial.cpp    ****                                       /* TxSelValue  */ (1UL<<4),
 159:Serial.cpp    ****                                       /* TxMask      */ (3UL<<4),
 160:Serial.cpp    ****                                       /* RxSelReg    */ (vuint64_t *)PINSEL0,
 161:Serial.cpp    ****                                       /* RxSelValue  */ (1UL<<6),
 162:Serial.cpp    ****                                       /* RxMask      */ (3UL<<6), 
 163:Serial.cpp    ****                           },
 164:Serial.cpp    ****                           {          
 165:Serial.cpp    ****                                       /* TxSelReg    */ (vuint64_t *)PINSEL0,
 166:Serial.cpp    ****                                       /* TxSelValue  */ (1UL<<4),
 167:Serial.cpp    ****                                       /* TxMask      */ (3UL<<4),
 168:Serial.cpp    ****                                       /* RxSelReg    */ (vuint64_t *)PINSEL0,
 169:Serial.cpp    ****                                       /* RxSelValue  */ (1UL<<6),
 170:Serial.cpp    ****                                       /* RxMask      */ (3UL<<6), 
 171:Serial.cpp    ****                           }
 172:Serial.cpp    **** };
 173:Serial.cpp    **** 
 174:Serial.cpp    **** /* The quad UART registers */
 175:Serial.cpp    **** volatile UART_REG_T *uartReg[NUM_UARTS] = {
 176:Serial.cpp    ****                                              (volatile UART_REG_T*)UART0_BASE_ADDR,
 177:Serial.cpp    ****                                              (volatile UART_REG_T*)UART1_BASE_ADDR,
 178:Serial.cpp    ****                                              (volatile UART_REG_T*)UART2_BASE_ADDR,
 179:Serial.cpp    ****                                              (volatile UART_REG_T*)UART3_BASE_ADDR,
 180:Serial.cpp    ****                                            };
 181:Serial.cpp    **** 
 182:Serial.cpp    **** //**************************************
 183:Serial.cpp    **** //* LOCAL FUNCTIONS
 184:Serial.cpp    **** //**************************************
 185:Serial.cpp    **** 
 186:Serial.cpp    **** //***************************************
 187:Serial.cpp    **** //* The Serial Interrupt Service routine
 188:Serial.cpp    **** //* used for all 4 uarts.                     
 189:Serial.cpp    **** void SerialISR(uint8_t portNum) {
  27              	supports interworking.
  28              		@ args = 0, pretend = 0, frame = 8
  29              		@ frame_needed = 0, uses_anonymous_args = 0
  30              		@ link register save eliminated.
  31              	.LVL0:
  32              		stmfd	sp!, {r4, r5}
  33 0000 30002DE9 	.LCFI0:
  34              		sub	sp, sp, #8
  35 0004 08D04DE2 	.LCFI1:
ARM GAS  C:\Users\Chris\AppData\Local\Temp/ccSoaaaa.s 			page 5


  36              	.LBB10:
  37              		.loc 1 191 0
 190:Serial.cpp    ****     BYTE IIRValue, LSRValue;
 191:Serial.cpp    ****     volatile BYTE Dummy = Dummy;
  38              	sp, #7]	@ zero_extendqisi2
  39 0008 0730DDE5 	.LVL1:
  40              		.loc 1 193 0
 192:Serial.cpp    **** 	
 193:Serial.cpp    ****     IIRValue = uartReg[portNum]->R3.IIR;
  41              	r	r2, .L15
  42 000c 88219FE5 		.loc 1 191 0
  43              		and	r3, r3, #255
  44 0010 FF3003E2 	.LVL2:
  45              		strb	r3, [sp, #7]
  46 0014 0730CDE5 		.loc 1 193 0
  47              		ldr	r4, [r2, r0, asl #2]
  48 0018 004192E7 		ldr	r3, [r4, #8]
  49 001c 083094E5 	.LVL3:
  50              		.loc 1 195 0
 194:Serial.cpp    ****     
 195:Serial.cpp    ****     IIRValue >>= 1;			/* skip pending bit in IIR */
  51              	3, lsr #1
  52 0020 A330A0E1 		.loc 1 196 0
 196:Serial.cpp    ****     IIRValue &= 0x07;			/* check bit 1~3, interrupt identification */
  53              	nd	ip, r3, #7
  54 0024 07C003E2 	.LVL4:
  55              		.loc 1 198 0
 197:Serial.cpp    **** 
 198:Serial.cpp    **** 	if ( IIRValue == IIR_RLS )		/* Receive Line Status */
  56              	p	ip, #3
  57 0028 03005CE3 		beq	.L10
  58 002c 1F00000A 		.loc 1 226 0
 199:Serial.cpp    ****     {
 200:Serial.cpp    **** 		
 201:Serial.cpp    **** 		LSRValue = uartReg[portNum]->LSR;
 202:Serial.cpp    **** 		/* Receive Line Status */
 203:Serial.cpp    **** 		if ( LSRValue & (LSR_OE|LSR_PE|LSR_FE|LSR_RXFE|LSR_BI) )
 204:Serial.cpp    **** 		{
 205:Serial.cpp    **** 	    	/* There are errors or break interrupt */
 206:Serial.cpp    **** 	    	/* Read LSR will clear the interrupt */
 207:Serial.cpp    **** 	    	uartData[portNum].status = LSRValue;
 208:Serial.cpp    **** 	    	Dummy = uartReg[portNum]->R1.RBR;		/* Dummy read on RX to clear 
 209:Serial.cpp    **** 													   interrupt, then bail out */
 210:Serial.cpp    **** 	    	return;
 211:Serial.cpp    **** 		}
 212:Serial.cpp    **** 		if ( LSRValue & LSR_RDR )	/* Receive Data Ready */			
 213:Serial.cpp    **** 		{
 214:Serial.cpp    **** 	    	/* If no error on RLS, normal ready, save into the data buffer. */
 215:Serial.cpp    **** 	    	/* Note: read RBR will clear the interrupt */
 216:Serial.cpp    **** 			volatile uint16_t *rxCnt = &uartData[portNum].RxCnt;
 217:Serial.cpp    **** 	    	uartData[portNum].Buffer[*rxCnt] = uartReg[portNum]->R2.R;
 218:Serial.cpp    **** 	    	*rxCnt++;
 219:Serial.cpp    **** 
 220:Serial.cpp    **** 	    	if ( *rxCnt == UART_BUFFSIZE )
 221:Serial.cpp    **** 	    	{
 222:Serial.cpp    **** 				*rxCnt = 0;		/* buffer overflow */
 223:Serial.cpp    **** 	    	}	
ARM GAS  C:\Users\Chris\AppData\Local\Temp/ccSoaaaa.s 			page 6


 224:Serial.cpp    **** 		}
 225:Serial.cpp    ****     }
 226:Serial.cpp    ****     else if ( IIRValue == IIR_RDA )	/* Receive Data Available */
  59              	p	ip, #2
  60 0030 02005CE3 		beq	.L11
  61 0034 0600000A 		.loc 1 239 0
 227:Serial.cpp    ****     {
 228:Serial.cpp    **** 		/* Receive Data Available */
 229:Serial.cpp    **** 		//volatile uint16_t *rxCnt = &uartData[portNum].RxCnt;
 230:Serial.cpp    **** 		uartData[portNum].Buffer[uartData[portNum].RxCnt] = U0RBR;
 231:Serial.cpp    **** 		uartData[portNum].RxCnt++;
 232:Serial.cpp    **** 		//uartData[0].Buffer[0] = U0RBR;
 233:Serial.cpp    **** 
 234:Serial.cpp    **** 		if ( uartData[portNum].RxCnt == UART_BUFFSIZE )
 235:Serial.cpp    **** 		{
 236:Serial.cpp    **** 			uartData[portNum].RxCnt = 0;		/* buffer overflow */
 237:Serial.cpp    **** 		}
 238:Serial.cpp    ****     }
 239:Serial.cpp    ****     else if ( IIRValue == IIR_CTI )	/* Character timeout indicator */
  62              	p	ip, #6
  63 0038 06005CE3 		beq	.L12
  64 003c 3D00000A 		.loc 1 244 0
 240:Serial.cpp    ****     {
 241:Serial.cpp    **** 		/* Character Time-out indicator */
 242:Serial.cpp    **** 		uartData[portNum].status |= 0x100;		/* Bit 9 as the CTI error */
 243:Serial.cpp    ****     }
 244:Serial.cpp    ****     else if ( IIRValue == IIR_THRE )	/* THRE, transmit holding register empty */
  65              	p	ip, #1
  66 0040 01005CE3 		beq	.L13
  67 0044 4400000A 	.LVL5:
  68              	.L8:
  69              	.LBE10:
  70              		.loc 1 258 0
 245:Serial.cpp    ****     {
 246:Serial.cpp    **** 		/* THRE interrupt */
 247:Serial.cpp    **** 		LSRValue = uartReg[portNum]->LSR;	/* Check status in the LSR to see if
 248:Serial.cpp    **** 															valid data in U0THR or not */
 249:Serial.cpp    **** 		if ( LSRValue & LSR_THRE )
 250:Serial.cpp    **** 		{
 251:Serial.cpp    **** 	    	uartData[portNum].TxEmpy = 1;
 252:Serial.cpp    **** 		}
 253:Serial.cpp    **** 		else
 254:Serial.cpp    **** 		{
 255:Serial.cpp    **** 	    	uartData[portNum].TxEmpy = 0;
 256:Serial.cpp    **** 		}
 257:Serial.cpp    ****     } 
 258:Serial.cpp    **** }
  71              	p, sp, #8
  72 0048 08D08DE2 		ldmfd	sp!, {r4, r5}
  73 004c 3000BDE8 		bx	lr
  74 0050 1EFF2FE1 	.LVL6:
  75              	.L11:
  76              	.LBB12:
  77              		.loc 1 230 0
  78              		mov	r3, r0, asl #6
  79 0054 0033A0E1 		ldr	ip, .L15+4
  80 0058 40C19FE5 	.LVL7:
ARM GAS  C:\Users\Chris\AppData\Local\Temp/ccSoaaaa.s 			page 7


  81              		mov	r0, r0, asl #3
  82 005c 8001A0E1 	.LVL8:
  83              		add	r0, r0, r3
  84 0060 030080E0 		add	r2, ip, r0
  85 0064 00208CE0 		mov	r3, #-536870912
  86 0068 0E32A0E3 		add	r4, r2, #64
  87 006c 404082E2 		add	r3, r3, #49152
  88 0070 033983E2 		ldrh	r1, [r4, #4]
  89 0074 B410D4E1 		ldr	r2, [r3, #0]
  90 0078 002093E5 		add	r1, r1, r0
  91 007c 001081E0 		and	r2, r2, #255
  92 0080 FF2002E2 		strb	r2, [ip, r1]
  93 0084 0120CCE7 		.loc 1 231 0
  94              		ldrh	r3, [r4, #4]
  95 0088 B430D4E1 		add	r3, r3, #1
  96 008c 013083E2 		mov	r3, r3, asl #16
  97 0090 0338A0E1 		mov	r3, r3, lsr #16
  98 0094 2338A0E1 		strh	r3, [r4, #4]	@ movhi
  99 0098 B430C4E1 		.loc 1 234 0
 100              		ldrh	r2, [r4, #4]
 101 009c B420D4E1 		cmp	r2, #64
 102 00a0 400052E3 		.loc 1 236 0
 103              		moveq	r3, #0	@ movhi
 104 00a4 0030A003 		streqh	r3, [r4, #4]	@ movhi
 105 00a8 B430C401 		b	.L8
 106 00ac E5FFFFEA 	.LVL9:
 107              	.L10:
 108              		.loc 1 201 0
 109              		ldr	r3, [r4, #20]
 110 00b0 143094E5 		.loc 1 203 0
 111              		ands	r5, r3, #158
 112 00b4 9E5013E2 		.loc 1 201 0
 113              		and	ip, r3, #255
 114 00b8 FFC003E2 	.LVL10:
 115              		.loc 1 203 0
 116              		bne	.L14
 117 00bc 1300001A 		.loc 1 212 0
 118              		tst	r3, #1
 119 00c0 010013E3 		beq	.L8
 120 00c4 DFFFFF0A 	.LBB11:
 121              		.loc 1 216 0
 122              		mov	r3, r0, asl #6
 123 00c8 0033A0E1 		ldr	ip, .L15+4
 124 00cc CCC09FE5 	.LVL11:
 125              		mov	r2, r0, asl #3
 126 00d0 8021A0E1 		add	r2, r2, r3
 127 00d4 032082E0 		.loc 1 217 0
 128              		add	r0, ip, r2
 129 00d8 02008CE0 	.LVL12:
 130              		add	r0, r0, #64
 131 00dc 400080E2 		ldrh	r1, [r0, #4]
 132 00e0 B410D0E1 		ldr	r3, [r4, #4]
 133 00e4 043094E5 		add	r1, r1, r2
 134 00e8 021081E0 		and	r3, r3, #255
 135 00ec FF3003E2 		strb	r3, [ip, r1]
 136 00f0 0130CCE7 		.loc 1 216 0
 137              		add	r2, r2, #64
ARM GAS  C:\Users\Chris\AppData\Local\Temp/ccSoaaaa.s 			page 8


 138 00f4 402082E2 		add	r1, ip, r2
 139 00f8 02108CE0 		.loc 1 218 0
 140              		ldrh	r3, [r0, #4]
 141 00fc B430D0E1 		.loc 1 220 0
 142              		ldrh	r3, [r1, #6]
 143 0100 B630D1E1 		cmp	r3, #64
 144 0104 400053E3 		.loc 1 222 0
 145              		streqh	r5, [r1, #6]	@ movhi
 146 0108 B650C101 		b	.L8
 147 010c CDFFFFEA 	.LVL13:
 148              	.L14:
 149              	.LBE11:
 150              		.loc 1 207 0
 151              		mov	r1, r0, asl #6
 152 0110 0013A0E1 		mov	r2, r0, asl #3
 153 0114 8021A0E1 		ldr	r3, .L15+4
 154 0118 80309FE5 		add	r2, r2, r1
 155 011c 012082E0 		add	r3, r3, r2
 156 0120 023083E0 		str	ip, [r3, #64]
 157 0124 40C083E5 		.loc 1 208 0
 158              		ldr	r2, [r4, #0]
 159 0128 002094E5 		and	r2, r2, #255
 160 012c FF2002E2 	.LVL14:
 161              		strb	r2, [sp, #7]
 162 0130 0720CDE5 		b	.L8
 163 0134 C3FFFFEA 	.LVL15:
 164              	.L12:
 165              		.loc 1 242 0
 166              		mov	r3, r0, asl #6
 167 0138 0033A0E1 		mov	r2, r0, asl #3
 168 013c 8021A0E1 		ldr	r1, .L15+4
 169 0140 58109FE5 		add	r2, r2, r3
 170 0144 032082E0 		add	r1, r1, r2
 171 0148 021081E0 		ldr	r3, [r1, #64]
 172 014c 403091E5 		orr	r3, r3, #256
 173 0150 013C83E3 		str	r3, [r1, #64]
 174 0154 403081E5 		b	.L8
 175 0158 BAFFFFEA 	.L13:
 176              		.loc 1 247 0
 177              		ldr	r3, [r4, #20]
 178 015c 143094E5 		.loc 1 249 0
 179              		ands	r4, r3, #32
 180 0160 204013E2 		.loc 1 251 0
 181              		movne	r2, r0, asl #3
 182 0164 8021A011 		movne	r3, r0, asl #6
 183 0168 0033A011 		ldrne	r1, .L15+8
 184 016c 30109F15 		addne	r2, r2, r3
 185 0170 03208210 		addne	r2, r2, r1
 186 0174 01208210 		strneh	ip, [r2, #6]	@ movhi
 187 0178 B6C0C211 		.loc 1 249 0
 188              		bne	.L8
 189 017c B1FFFF1A 		.loc 1 255 0
 190              		mov	r3, r0, asl #6
 191 0180 0033A0E1 		mov	r2, r0, asl #3
 192 0184 8021A0E1 		ldr	r1, .L15+8
 193 0188 14109FE5 		add	r2, r2, r3
 194 018c 032082E0 		add	r2, r2, r1
ARM GAS  C:\Users\Chris\AppData\Local\Temp/ccSoaaaa.s 			page 9


 195 0190 012082E0 		strh	r4, [r2, #6]	@ movhi
 196 0194 B640C2E1 		b	.L8
 197 0198 AAFFFFEA 	.L16:
 198              		.align	2
 199              	.L15:
 200              		.word	.LANCHOR0
 201 019c 00000000 		.word	.LANCHOR1
 202 01a0 00000000 		.word	.LANCHOR1+64
 203 01a4 40000000 	.LBE12:
 204              	.LFE2:
 205              		.cantunwind
 206              		.fnend
 207              		.size	_Z9SerialISRh, .-_Z9SerialISRh
 208              		.align	2
 209              		.global	_Z15SerialAvailableh
 210              		.type	_Z15SerialAvailableh, %function
 211              	_Z15SerialAvailableh:
 212              		.fnstart
 213              	.LFB8:
 214              		.loc 1 382 0
 259:Serial.cpp    **** 
 260:Serial.cpp    **** void Serial0ISR(void) {
 261:Serial.cpp    ****    
 262:Serial.cpp    ****    /* Perform proper ISR entry so thumb-interwork works properly */
 263:Serial.cpp    ****    ISR_ENTRY();
 264:Serial.cpp    **** 
 265:Serial.cpp    ****    /* Handle the UART Interrupt */
 266:Serial.cpp    ****    SerialISR(UART0);
 267:Serial.cpp    **** 
 268:Serial.cpp    ****    /* Clear this interrupt from the VIC */
 269:Serial.cpp    ****    VICVectAddr = 0x00000000;  
 270:Serial.cpp    ****    
 271:Serial.cpp    ****    /* Recover registers and return */           
 272:Serial.cpp    ****    ISR_EXIT();                           
 273:Serial.cpp    **** 
 274:Serial.cpp    **** }
 275:Serial.cpp    **** 
 276:Serial.cpp    **** void Serial1ISR(void) {
 277:Serial.cpp    ****    
 278:Serial.cpp    ****    /* Perform proper ISR entry so thumb-interwork works properly */
 279:Serial.cpp    ****    ISR_ENTRY();
 280:Serial.cpp    **** 
 281:Serial.cpp    ****    /* Handle the UART Interrupt */
 282:Serial.cpp    ****    SerialISR(UART1);
 283:Serial.cpp    **** 
 284:Serial.cpp    ****    /* Clear this interrupt from the VIC */
 285:Serial.cpp    ****    VICVectAddr = 0x00000000;  
 286:Serial.cpp    ****    
 287:Serial.cpp    ****    /* Recover registers and return */           
 288:Serial.cpp    ****    ISR_EXIT();   
 289:Serial.cpp    **** 
 290:Serial.cpp    **** }
 291:Serial.cpp    **** 
 292:Serial.cpp    **** void Serial2ISR(void) {
 293:Serial.cpp    ****    
 294:Serial.cpp    ****    /* Perform proper ISR entry so thumb-interwork works properly */
 295:Serial.cpp    ****    ISR_ENTRY();
ARM GAS  C:\Users\Chris\AppData\Local\Temp/ccSoaaaa.s 			page 10


 296:Serial.cpp    **** 
 297:Serial.cpp    ****    /* Handle the UART Interrupt */
 298:Serial.cpp    ****    SerialISR(UART2);
 299:Serial.cpp    **** 
 300:Serial.cpp    ****    /* Clear this interrupt from the VIC */
 301:Serial.cpp    ****    VICVectAddr = 0x00000000;  
 302:Serial.cpp    ****    
 303:Serial.cpp    ****    /* Recover registers and return */           
 304:Serial.cpp    ****    ISR_EXIT();   
 305:Serial.cpp    **** 
 306:Serial.cpp    **** }
 307:Serial.cpp    **** 
 308:Serial.cpp    **** void Serial3ISR(void) {
 309:Serial.cpp    **** 
 310:Serial.cpp    ****    /* Perform proper ISR entry so thumb-interwork works properly */
 311:Serial.cpp    ****    ISR_ENTRY();
 312:Serial.cpp    **** 
 313:Serial.cpp    ****    /* Handle the UART Interrupt */
 314:Serial.cpp    ****    SerialISR(UART3);
 315:Serial.cpp    **** 
 316:Serial.cpp    ****    /* Clear this interrupt from the VIC */
 317:Serial.cpp    ****    VICVectAddr = 0x00000000;  
 318:Serial.cpp    ****    
 319:Serial.cpp    ****    /* Recover registers and return */           
 320:Serial.cpp    ****    ISR_EXIT();   
 321:Serial.cpp    **** 
 322:Serial.cpp    **** }
 323:Serial.cpp    **** 
 324:Serial.cpp    **** //**************************************
 325:Serial.cpp    **** //* GLOBAL FUNCTIONS
 326:Serial.cpp    **** //**************************************
 327:Serial.cpp    **** 
 328:Serial.cpp    **** //*****************************************
 329:Serial.cpp    **** //* Initialize Serial Interface
 330:Serial.cpp    **** void SerialBegin(uint8_t portNum, uint32_t baud) {
 331:Serial.cpp    ****    vuint32_t Fdiv;
 332:Serial.cpp    **** 
 333:Serial.cpp    ****    //<CML> need to add pin definition for uart 2,3              
 334:Serial.cpp    **** 
 335:Serial.cpp    ****    /* Setup the pins */
 336:Serial.cpp    ****    *uartPins[portNum].TxSelReg = ( *uartPins[portNum].TxSelReg & 
 337:Serial.cpp    ****                                    ~uartPins[portNum].TxMask) |
 338:Serial.cpp    ****                                  uartPins[portNum].TxSelValue;
 339:Serial.cpp    ****    *uartPins[portNum].RxSelReg = ( *uartPins[portNum].RxSelReg & 
 340:Serial.cpp    ****                                    ~uartPins[portNum].RxMask) |
 341:Serial.cpp    ****                                   uartPins[portNum].RxSelValue;
 342:Serial.cpp    **** 
 343:Serial.cpp    ****    /* Setup the baud rate */
 344:Serial.cpp    ****    uartReg[portNum]->LCR = 0x83;           /* 8 bits, no Parity, 1 Stop bit, enable access */
 345:Serial.cpp    **** 
 346:Serial.cpp    ****    Fdiv = (PCLK / (16 * baud));	            /* The baud rate, not using fractional br */
 347:Serial.cpp    ****    uartReg[portNum]->R2.DLM = Fdiv / 256;
 348:Serial.cpp    ****    uartReg[portNum]->R1.DLL = Fdiv % 256; 
 349:Serial.cpp    ****    uartReg[portNum]->LCR = 0x03;           /* Disable access */
 350:Serial.cpp    ****    uartReg[portNum]->R3.FCR = 0x07;        /* Enable and reset TX and RX FIFO. */
 351:Serial.cpp    **** 
 352:Serial.cpp    ****    /* Install the interrupt handler into the VIC */
ARM GAS  C:\Users\Chris\AppData\Local\Temp/ccSoaaaa.s 			page 11


 353:Serial.cpp    ****    install_irq( uartInts[portNum].IntNumber, 
 354:Serial.cpp    ****                 (void *)uartInts[portNum].IntFunc,  
 355:Serial.cpp    ****                 uartInts[portNum].Priority);
 356:Serial.cpp    ****    
 357:Serial.cpp    ****    /* Enable the uart interrupt */
 358:Serial.cpp    ****    uartReg[portNum]->R2.IER.RBR = 1;   /* Rx Data Available */
 359:Serial.cpp    ****    uartReg[portNum]->R2.IER.THRE = 1;  /* THRE interrupt */
 360:Serial.cpp    ****    uartReg[portNum]->R2.IER.RLS = 1;   /* Rx Line Status Interrupt */
 361:Serial.cpp    **** 
 362:Serial.cpp    **** //   PINSEL0 |= 0x00000050;               /* Enable TxD0 and RxD0              */
 363:Serial.cpp    **** //  }
 364:Serial.cpp    **** //  else if (portNum == UART1) {
 365:Serial.cpp    **** //    PINSEL0 |= 0x40000000;               /* Enable TxD1                       */
 366:Serial.cpp    **** //    PINSEL1 |= 0x00000001;               /* Enable RxD1                       */
 367:Serial.cpp    **** //  }
 368:Serial.cpp    **** 
 369:Serial.cpp    **** //  UxLCR    = 0x83;                       /* 8 bits, no Parity, 1 Stop bit     */
 370:Serial.cpp    ****    
 371:Serial.cpp    **** 
 372:Serial.cpp    **** //  U0DLL    = 20;                         /* Set the UART baud rate divisor, 57600 */             
 373:Serial.cpp    **** //  U0DLM    = 0;                          /* High divisor latch = 0            */
 374:Serial.cpp    **** //  U0LCR    = 0x03;                       /* 8N1, DLAB = 0                          */
 375:Serial.cpp    **** 
 376:Serial.cpp    **** 
 377:Serial.cpp    **** }
 378:Serial.cpp    **** 
 379:Serial.cpp    **** //*****************************************
 380:Serial.cpp    **** //* Return the number of characters 
 381:Serial.cpp    **** //* in the buffer.
 382:Serial.cpp    **** int SerialAvailable(uint8_t portNum) {
 215              	ated.
 216              	.LVL16:
 217              		.loc 1 384 0
 218              		mov	r2, r0, asl #6
 219              		ldr	r3, .L19
 220              		mov	r0, r0, asl #3
 383:Serial.cpp    **** 
 384:Serial.cpp    **** 	return uartData[portNum].RxCnt;
 221              	:
 222 01a8 0023A0E1 		add	r0, r0, r2
 223 01ac 18309FE5 		add	r0, r0, r3
 224 01b0 8001A0E1 		ldrh	r0, [r0, #4]
 225              		mov	r0, r0, asl #16
 226 01b4 020080E0 		.loc 1 386 0
 227 01b8 030080E0 		mov	r0, r0, lsr #16
 228 01bc B400D0E1 		bx	lr
 229 01c0 0008A0E1 	.L20:
 385:Serial.cpp    **** 
 386:Serial.cpp    **** }
 230              	
 231 01c4 2008A0E1 	.L19:
 232 01c8 1EFF2FE1 		.word	.LANCHOR1+64
 233              	.LFE8:
 234              		.cantunwind
 235              		.fnend
 236 01cc 40000000 		.size	_Z15SerialAvailableh, .-_Z15SerialAvailableh
 237              		.align	2
ARM GAS  C:\Users\Chris\AppData\Local\Temp/ccSoaaaa.s 			page 12


 238              		.global	_Z11SerialWritehi
 239              		.type	_Z11SerialWritehi, %function
 240              	_Z11SerialWritehi:
 241              		.fnstart
 242              	.LFB9:
 243              		.loc 1 390 0
 244              		@ Function supports interworking.
 245              		@ args = 0, pretend = 0, frame = 0
 246              		@ frame_needed = 0, uses_anonymous_args = 0
 387:Serial.cpp    **** 
 388:Serial.cpp    **** //*****************************************
 389:Serial.cpp    **** //* Write character to Serial Port
 390:Serial.cpp    **** int SerialWrite(uint8_t portNum, int ch)  {
 247              	 save eliminated.
 248              	.LVL18:
 249              		.loc 1 390 0
 250              		ldr	r3, .L25
 251              		ldr	r0, [r3, r0, asl #2]
 252              	.LVL19:
 253              	.L22:
 254 01d0 18309FE5 		.loc 1 392 0
 255 01d4 000193E7 		ldr	r3, [r0, #20]
 256              		tst	r3, #32
 257              		beq	.L22
 391:Serial.cpp    **** 
 392:Serial.cpp    ****    while (!(uartReg[portNum]->LSR & 0x20));
 258              	 0
 259 01d8 143090E5 		str	r1, [r0, #0]
 260 01dc 200013E3 		ldr	r0, [r0, #0]
 261 01e0 FCFFFF0A 		.loc 1 395 0
 393:Serial.cpp    **** 
 394:Serial.cpp    ****    return(uartReg[portNum]->R1.THR = ch);
 262              	lr
 263 01e4 001080E5 	.L26:
 264 01e8 000090E5 		.align	2
 395:Serial.cpp    **** }
 265              	5:
 266 01ec 1EFF2FE1 		.word	.LANCHOR0
 267              	.LFE9:
 268              		.cantunwind
 269              		.fnend
 270 01f0 00000000 		.size	_Z11SerialWritehi, .-_Z11SerialWritehi
 271              		.align	2
 272              		.global	_Z9SerialStrhPc
 273              		.type	_Z9SerialStrhPc, %function
 274              	_Z9SerialStrhPc:
 275              		.fnstart
 276              	.LFB10:
 277              		.loc 1 399 0
 278              		@ Function supports interworking.
 279              		@ args = 0, pretend = 0, frame = 0
 280              		@ frame_needed = 0, uses_anonymous_args = 0
 396:Serial.cpp    **** 
 397:Serial.cpp    **** //*****************************************
 398:Serial.cpp    **** //* Write string to Serial Port
 399:Serial.cpp    **** void SerialStr(uint8_t portNum, char * str) {
 281              	 save eliminated.
ARM GAS  C:\Users\Chris\AppData\Local\Temp/ccSoaaaa.s 			page 13


 282              	.LVL20:
 283              		.loc 1 400 0
 284              		ldrb	ip, [r1, #0]	@ zero_extendqisi2
 285              		cmp	ip, #0
 286              		.loc 1 399 0
 400:Serial.cpp    ****    while (*str) {
 287              	4, [sp, #-4]!
 288 01f4 00C0D1E5 	.LCFI2:
 289 01f8 00005CE3 		.loc 1 400 0
 290              		beq	.L31
 291 01fc 04402DE5 		ldr	r4, .L34
 292              	.L30:
 293              		ldr	r2, [r4, r0, asl #2]
 294 0200 0900000A 	.L29:
 295 0204 28409FE5 	.LBB13:
 296              	.LBB14:
 297 0208 002194E7 		.loc 1 392 0
 298              		ldr	r3, [r2, #20]
 299              		tst	r3, #32
 300              		beq	.L29
 301              		.loc 1 394 0
 302 020c 143092E5 		str	ip, [r2, #0]
 303 0210 200013E3 	.LBE14:
 304 0214 FCFFFF0A 	.LBE13:
 305              		.loc 1 400 0
 306 0218 00C082E5 		ldrb	ip, [r1, #1]!	@ zero_extendqisi2
 307              	.LVL21:
 308              		cmp	ip, #0
 309              	.LBB16:
 310 021c 01C0F1E5 	.LBB15:
 311              		.loc 1 394 0
 312 0220 00005CE3 		ldr	r3, [r2, #0]
 313              	.LBE15:
 314              	.LBE16:
 315              		.loc 1 400 0
 316 0224 003092E5 		bne	.L30
 317              	.LVL22:
 318              	.L31:
 319              		.loc 1 404 0
 320 0228 F6FFFF1A 		ldmfd	sp!, {r4}
 321              		bx	lr
 322              	.L35:
 401:Serial.cpp    ****       SerialWrite(portNum, *str);
 402:Serial.cpp    ****       str++;
 403:Serial.cpp    ****    }
 404:Serial.cpp    **** } 
 323              	E10:
 324 022c 1000BDE8 		.cantunwind
 325 0230 1EFF2FE1 		.fnend
 326              		.size	_Z9SerialStrhPc, .-_Z9SerialStrhPc
 327              		.align	2
 328              		.global	_Z10SerialReadh
 329 0234 00000000 		.type	_Z10SerialReadh, %function
 330              	_Z10SerialReadh:
 331              		.fnstart
 332              	.LFB11:
 333              		.loc 1 408 0
ARM GAS  C:\Users\Chris\AppData\Local\Temp/ccSoaaaa.s 			page 14


 334              		@ Function supports interworking.
 335              		@ args = 0, pretend = 0, frame = 0
 336              		@ frame_needed = 0, uses_anonymous_args = 0
 337              		@ link register save eliminated.
 338              	.LVL23:
 339              		stmfd	sp!, {r4, r5, r6, r7, r8}
 405:Serial.cpp    **** 
 406:Serial.cpp    **** //*****************************************
 407:Serial.cpp    **** //* Read character from Serial Port
 408:Serial.cpp    **** int  SerialRead(uint8_t portNum) {
 340              	.loc 1 414 0
 341              		mov	r7, r0, asl #6
 342              	.LVL24:
 343              		ldr	r4, .L41
 344              		mov	r6, r0, asl #3
 345              		add	r1, r6, r7
 346 0238 F0012DE9 		add	r3, r4, r1
 347              		.loc 1 417 0
 348              		add	r0, r3, #64
 409:Serial.cpp    **** //   while (!(uartReg[portNum]->LSR & 0x01));
 410:Serial.cpp    **** //   return(uartReg[portNum]->R1.RBR);
 411:Serial.cpp    ****     uint8_t c;
 412:Serial.cpp    ****     uint8_t ii;
 413:Serial.cpp    **** 
 414:Serial.cpp    ****     c = uartData[portNum].Buffer[0];
 349              	14 0
 350 023c 0073A0E1 		ldrb	r2, [r4, r1]	@ zero_extendqisi2
 351              		.loc 1 417 0
 352 0240 80409FE5 		ldrh	r3, [r0, #4]
 353 0244 8061A0E1 		cmp	r3, #0
 354 0248 071086E0 		.loc 1 414 0
 355 024c 013084E0 		and	r8, r2, #255
 415:Serial.cpp    **** 
 416:Serial.cpp    **** 	/* fix me! */
 417:Serial.cpp    ****     for (ii=0; ii<uartData[portNum].RxCnt; ii++) {
 356              	
 357 0250 400083E2 		.loc 1 417 0
 358              		beq	.L37
 359 0254 0120D4E7 		.loc 1 418 0
 360              		mov	ip, r1
 361 0258 B430D0E1 		.loc 1 417 0
 362 025c 000053E3 		mov	r5, r0
 363              		mov	r1, #0
 364 0260 FF8002E2 	.LVL26:
 365              	.L38:
 366              		.loc 1 418 0
 367 0264 0C00000A 		add	r0, r1, #1
 418:Serial.cpp    ****         uartData[portNum].Buffer[ii] = uartData[portNum].Buffer[ii+1]; 
 368              	, r0
 369 0268 01C0A0E1 		ldrb	r3, [r4, r2]	@ zero_extendqisi2
 370              		add	r1, ip, r1
 371 026c 0050A0E1 	.LVL27:
 372 0270 0010A0E3 		and	r3, r3, #255
 373              		strb	r3, [r4, r1]
 374              		.loc 1 417 0
 375              		ldrh	r2, [r5, #4]
 376 0274 010081E2 		and	r1, r0, #255
ARM GAS  C:\Users\Chris\AppData\Local\Temp/ccSoaaaa.s 			page 15


 377 0278 00208CE0 	.LVL28:
 378 027c 0230D4E7 		cmp	r2, r1
 379 0280 01108CE0 		bhi	.L38
 380              	.L37:
 381 0284 FF3003E2 		.loc 1 421 0
 382 0288 0130C4E7 		add	r2, r6, r7
 383              		add	r2, r4, r2
 384 028c B420D5E1 		add	r2, r2, #64
 385 0290 FF1000E2 		ldrh	r3, [r2, #4]
 386              		sub	r3, r3, #1
 387 0294 010052E1 		mov	r3, r3, asl #16
 388 0298 F5FFFF8A 		mov	r3, r3, lsr #16
 389              		strh	r3, [r2, #4]	@ movhi
 419:Serial.cpp    ****     }
 420:Serial.cpp    **** 
 421:Serial.cpp    **** 	uartData[portNum].RxCnt--;
 390              		mov	r0, r8
 391 029c 072086E0 		ldmfd	sp!, {r4, r5, r6, r7, r8}
 392 02a0 022084E0 		bx	lr
 393 02a4 402082E2 	.L42:
 394 02a8 B430D2E1 		.align	2
 395 02ac 013043E2 	.L41:
 396 02b0 0338A0E1 		.word	.LANCHOR1
 397 02b4 2338A0E1 	.LFE11:
 398 02b8 B430C2E1 		.cantunwind
 399              		.fnend
 422:Serial.cpp    **** 	
 423:Serial.cpp    ****     return c;
 424:Serial.cpp    **** }
 400              	0SerialReadh, .-_Z10SerialReadh
 401 02bc 0800A0E1 		.align	2
 402 02c0 F001BDE8 		.type	_GLOBAL__I_uartData, %function
 403 02c4 1EFF2FE1 	_GLOBAL__I_uartData:
 404              		.fnstart
 405              	.LFB13:
 406              		.loc 1 424 0
 407 02c8 00000000 		@ Function supports interworking.
 408              		@ args = 0, pretend = 0, frame = 0
 409              		@ frame_needed = 0, uses_anonymous_args = 0
 410              		@ link register save eliminated.
 411              	.LBB18:
 412              	.LBB19:
 413              		.loc 1 172 0
 414              		mov	r3, #-536870912
 415              		add	r3, r3, #180224
 416              		ldr	r1, [r3, #0]
 417              		ldr	r0, .L45
 418              		str	r1, [r0, #40]
 419              		ldr	r2, [r3, #4]
 420              		str	r2, [r0, #52]
 421              		ldr	r1, [r3, #0]
 422              		str	r1, [r0, #64]
 423              		ldr	r2, [r3, #0]
 424              		str	r2, [r0, #76]
 425 02cc 0E32A0E3 		ldr	r1, [r3, #0]
 426 02d0 0B3983E2 		str	r1, [r0, #88]
 427 02d4 001093E5 		ldr	r2, [r3, #0]
ARM GAS  C:\Users\Chris\AppData\Local\Temp/ccSoaaaa.s 			page 16


 428 02d8 2C009FE5 		str	r2, [r0, #100]
 429 02dc 281080E5 	.LBE19:
 430 02e0 042093E5 	.LBE18:
 431 02e4 342080E5 		.loc 1 424 0
 432 02e8 001093E5 		bx	lr
 433 02ec 401080E5 	.L46:
 434 02f0 002093E5 		.align	2
 435 02f4 4C2080E5 	.L45:
 436 02f8 001093E5 		.word	.LANCHOR0
 437 02fc 581080E5 	.LFE13:
 438 0300 002093E5 		.cantunwind
 439 0304 642080E5 		.fnend
 440              		.size	_GLOBAL__I_uartData, .-_GLOBAL__I_uartData
 441              		.section	.init_array,"aw",%init_array
 442              		.align	2
 443 0308 1EFF2FE1 		.word	_GLOBAL__I_uartData(target1)
 444              		.global	__aeabi_uidiv
 445              		.text
 446              		.align	2
 447 030c 00000000 		.global	_Z11SerialBeginhm
 448              		.type	_Z11SerialBeginhm, %function
 449              	_Z11SerialBeginhm:
 450              		.fnstart
 451              	.LFB7:
 452              		.loc 1 330 0
 453              		@ Function supports interworking.
 454 0000 00000000 		@ args = 0, pretend = 0, frame = 16
 455              		@ frame_needed = 1, uses_anonymous_args = 0
 456              	.LVL29:
 457              		.movsp ip
 458              		mov	ip, sp
 459              	.LCFI4:
 460              		stmfd	sp!, {r4, r5, r6, r7, r8, r9, sl, fp, ip, lr, pc}
 461              		.pad #4
 462              		.save {r4, r5, r6, r7, r8, r9, sl, fp, ip, lr}
 463              	.LCFI5:
 464              		.setfp fp, ip, #-4
 465              		sub	fp, ip, #4
 466              	.LCFI6:
 467              		.pad #20
 468              		sub	sp, sp, #20
 469 0310 0DC0A0E1 	.LCFI7:
 470              		.loc 1 330 0
 471 0314 F0DF2DE9 		str	r0, [fp, #-56]
 472              	.LBB20:
 473              		.loc 1 338 0
 474              		ldr	r3, [fp, #-56]
 475              		mov	r2, r0, asl #3
 476 0318 04B04CE2 		mov	ip, r0, asl #5
 477              		str	r2, [fp, #-60]
 478              		rsb	ip, r2, ip
 479 031c 14D04DE2 		mov	r0, r0, asl #1
 480              	.LVL30:
 481              		ldr	r2, .L49
 482 0320 38000BE5 		add	r0, r0, r3
 483              		add	ip, r2, ip
 484              		ldr	r3, .L49
ARM GAS  C:\Users\Chris\AppData\Local\Temp/ccSoaaaa.s 			page 17


 485 0324 38301BE5 		add	r0, r0, #1
 486 0328 8021A0E1 		ldr	lr, [ip, #16]
 487 032c 80C2A0E1 		mov	r0, r0, asl #3
 488 0330 3C200BE5 		ldr	r2, [ip, #16]
 489 0334 0CC062E0 		add	r0, r3, r0
 490 0338 8000A0E1 		ldmia	r2, {r9-sl}
 491              		ldr	r3, [r0, #16]
 492 033c 2C219FE5 		ldr	r5, [ip, #20]
 493 0340 030080E0 		mvn	r3, r3
 494 0344 0CC082E0 		mov	r4, #0
 495 0348 20319FE5 		mov	r6, #0
 496 034c 010080E2 		and	r7, r3, r9
 497 0350 10E09CE5 		and	r8, r4, sl
 498 0354 8001A0E1 		orr	r3, r7, r5
 499 0358 10209CE5 		orr	r4, r8, r6
 500 035c 000083E0 		stmia	lr, {r3-r4}
 501 0360 000692E8 		.loc 1 341 0
 502 0364 103090E5 		ldr	lr, [r0, #20]
 503 0368 14509CE5 		ldr	r2, [r0, #20]
 504 036c 0330E0E1 		ldmia	r2, {r9-sl}
 505 0370 0040A0E3 		ldr	r3, [ip, #36]
 506 0374 0060A0E3 		mvn	r3, r3
 507 0378 097003E0 		mov	r4, #0
 508 037c 0A8004E0 		ldr	r5, [ip, #32]
 509 0380 053087E1 		.loc 1 344 0
 510 0384 064088E1 		ldr	r2, [fp, #-56]
 511 0388 18008EE8 		.loc 1 341 0
 512              		and	r7, r3, r9
 513 038c 14E090E5 		.loc 1 344 0
 514 0390 142090E5 		ldr	r3, .L49
 515 0394 000692E8 		.loc 1 341 0
 516 0398 24309CE5 		and	r8, r4, sl
 517 039c 0330E0E1 		mov	r6, #0
 518 03a0 0040A0E3 		.loc 1 344 0
 519 03a4 20509CE5 		ldr	sl, [r3, r2, asl #2]
 520              		.loc 1 346 0
 521 03a8 38201BE5 		mov	r0, #17825792
 522              		.loc 1 341 0
 523 03ac 097003E0 		orr	r3, r7, r5
 524              		.loc 1 344 0
 525 03b0 B8309FE5 		mov	r2, #131
 526              		.loc 1 341 0
 527 03b4 0A8004E0 		orr	r4, r8, r6
 528 03b8 0060A0E3 		.loc 1 346 0
 529              		add	r0, r0, #174080
 530 03bc 02A193E7 		.loc 1 341 0
 531              		stmia	lr, {r3-r4}
 532 03c0 1106A0E3 		.loc 1 346 0
 533              		mov	r1, r1, asl #4
 534 03c4 053087E1 	.LVL31:
 535              		.loc 1 344 0
 536 03c8 8320A0E3 		str	r2, [sl, #12]
 537              		.loc 1 346 0
 538 03cc 064088E1 		add	r0, r0, #128
 539              		bl	__aeabi_uidiv
 540 03d0 AA0B80E2 		str	r0, [fp, #-48]
 541              	.LVL32:
ARM GAS  C:\Users\Chris\AppData\Local\Temp/ccSoaaaa.s 			page 18


 542 03d4 18008EE8 		.loc 1 347 0
 543              		ldr	r3, [fp, #-48]
 544 03d8 0112A0E1 		mov	r3, r3, lsr #8
 545              		str	r3, [sl, #4]
 546              		.loc 1 348 0
 547 03dc 0C208AE5 		ldr	r2, [fp, #-48]
 548              		and	r2, r2, #255
 549 03e0 800080E2 		str	r2, [sl, #0]
 550 03e4 FEFFFFEB 		.loc 1 349 0
 551 03e8 30000BE5 		mov	r3, #3
 552              		.loc 1 350 0
 553              		mov	r2, #7
 554 03ec 30301BE5 		.loc 1 349 0
 555 03f0 2334A0E1 		str	r3, [sl, #12]
 556 03f4 04308AE5 		.loc 1 350 0
 557              		str	r2, [sl, #8]
 558 03f8 30201BE5 		.loc 1 355 0
 559 03fc FF2002E2 		ldr	r1, [fp, #-60]
 560 0400 00208AE5 		ldr	r3, .L49
 561              		add	r2, r3, r1
 562 0404 0330A0E3 		add	r3, r2, #112
 563              		ldrb	r0, [r3, #4]	@ zero_extendqisi2
 564 0408 0720A0E3 		ldr	r1, [r2, #112]
 565              		ldrb	r2, [r3, #5]	@ zero_extendqisi2
 566 040c 0C308AE5 		bl	_Z11install_irqmPvm
 567              		.loc 1 358 0
 568 0410 08208AE5 		ldr	r2, [fp, #-56]
 569              		ldr	r3, .L49
 570 0414 3C101BE5 		ldr	r1, [r3, r2, asl #2]
 571 0418 50309FE5 		ldr	r3, [r1, #4]
 572 041c 012083E0 		orr	r3, r3, #1
 573 0420 703082E2 		str	r3, [r1, #4]
 574 0424 0400D3E5 		.loc 1 359 0
 575 0428 701092E5 		ldr	r2, [r1, #4]
 576 042c 0520D3E5 		orr	r2, r2, #2
 577 0430 FEFFFFEB 		str	r2, [r1, #4]
 578              		.loc 1 360 0
 579 0434 38201BE5 		ldr	r3, [r1, #4]
 580 0438 30309FE5 		orr	r3, r3, #4
 581 043c 021193E7 		str	r3, [r1, #4]
 582 0440 043091E5 	.LBE20:
 583 0444 013083E3 		.loc 1 377 0
 584 0448 043081E5 		sub	sp, fp, #40
 585              		ldmfd	sp, {r4, r5, r6, r7, r8, r9, sl, fp, sp, lr}
 586 044c 042091E5 		bx	lr
 587 0450 022082E3 	.L50:
 588 0454 042081E5 		.align	2
 589              	.L49:
 590 0458 043091E5 		.word	.LANCHOR0
 591 045c 043083E3 	.LFE7:
 592 0460 043081E5 		.fnend
 593              		.size	_Z11SerialBeginhm, .-_Z11SerialBeginhm
 594              		.align	2
 595 0464 28D04BE2 		.global	_Z10Serial3ISRv
 596 0468 F06F9DE8 		.type	_Z10Serial3ISRv, %function
 597 046c 1EFF2FE1 	_Z10Serial3ISRv:
 598              		.fnstart
ARM GAS  C:\Users\Chris\AppData\Local\Temp/ccSoaaaa.s 			page 19


 599              	.LFB6:
 600              		.loc 1 308 0
 601 0470 00000000 		@ Function supports interworking.
 602              		@ Naked Function: prologue and epilogue provided by programmer.
 603              		@ args = 0, pretend = 0, frame = 0
 604              		@ frame_needed = 0, uses_anonymous_args = 0
 605              		.loc 1 311 0
 606              	@ 311 "Serial.cpp" 1
 607              		 sub   lr, lr,#4
 608              	 stmfd sp!,{r0-r12,lr}
 609              	 mrs   r1, spsr
 610              	 stmfd sp!,{r1}
 611              	@ 0 "" 2
 612              	.LBB25:
 613              	.LBB26:
 614              	.LBB27:
 615              		.loc 1 193 0
 616              		ldr	r2, .L63
 617              		ldr	ip, [r2, #12]
 618 0474 04E04EE2 		ldr	r3, [ip, #8]
 619 0478 FF5F2DE9 		.loc 1 195 0
 620 047c 00104FE1 		mov	r3, r3, lsr #1
 621 0480 02002DE9 		.loc 1 196 0
 622              		and	r1, r3, #7
 623              	.LVL33:
 624              		.loc 1 198 0
 625              		cmp	r1, #3
 626              		beq	.L59
 627 0484 2C219FE5 		.loc 1 226 0
 628 0488 0CC092E5 		cmp	r1, #2
 629 048c 08309CE5 		beq	.L60
 630              		.loc 1 239 0
 631 0490 A330A0E1 		cmp	r1, #6
 632              		beq	.L61
 633 0494 071003E2 		.loc 1 244 0
 634              		cmp	r1, #1
 635              		bne	.L54
 636 0498 030051E3 		.loc 1 247 0
 637 049c 2800000A 		ldr	r3, [ip, #20]
 638              		.loc 1 249 0
 639 04a0 020051E3 		ands	r0, r3, #32
 640 04a4 0E00000A 		.loc 1 251 0
 641              		movne	r3, #284
 642 04a8 060051E3 		.loc 1 255 0
 643 04ac 3C00000A 		moveq	r3, #284
 644              		.loc 1 251 0
 645 04b0 010051E3 		ldrne	r2, .L63+4
 646 04b4 1C00001A 		.loc 1 255 0
 647              		ldreq	r2, .L63+4
 648 04b8 14309CE5 		.loc 1 251 0
 649              		addne	r3, r3, #2
 650 04bc 200013E2 		.loc 1 255 0
 651              		addeq	r3, r3, #2
 652 04c0 473FA013 		.loc 1 251 0
 653              		strneh	r1, [r2, r3]	@ movhi
 654 04c4 473FA003 		.loc 1 255 0
 655              		streqh	r0, [r2, r3]	@ movhi
ARM GAS  C:\Users\Chris\AppData\Local\Temp/ccSoaaaa.s 			page 20


 656 04c8 EC209F15 		b	.L54
 657              	.L60:
 658 04cc E8209F05 		.loc 1 230 0
 659              		ldr	ip, .L63+4
 660 04d0 02308312 		mov	r3, #-536870912
 661              		mov	r0, #284
 662 04d4 02308302 		add	r3, r3, #49152
 663              		ldrh	r1, [ip, r0]
 664 04d8 B3108211 	.LVL34:
 665              		ldr	r2, [r3, #0]
 666 04dc B3008201 		add	r1, ip, r1
 667 04e0 110000EA 		and	r2, r2, #255
 668              		strb	r2, [r1, #216]
 669              		.loc 1 231 0
 670 04e4 D0C09FE5 		ldrh	r3, [ip, r0]
 671 04e8 0E32A0E3 		add	r3, r3, #1
 672 04ec 470FA0E3 		mov	r3, r3, asl #16
 673 04f0 033983E2 		mov	r3, r3, lsr #16
 674 04f4 B0109CE1 		strh	r3, [ip, r0]	@ movhi
 675              		.loc 1 234 0
 676 04f8 002093E5 		ldrh	r2, [ip, r0]
 677 04fc 01108CE0 		cmp	r2, #64
 678 0500 FF2002E2 		.loc 1 236 0
 679 0504 D820C1E5 		moveq	r3, #0	@ movhi
 680              		streqh	r3, [ip, r0]	@ movhi
 681 0508 B0309CE1 	.LVL35:
 682 050c 013083E2 	.L54:
 683 0510 0338A0E1 	.LBE27:
 684 0514 2338A0E1 	.LBE26:
 685 0518 B0308CE1 	.LBE25:
 686              		.loc 1 317 0
 687 051c B0209CE1 		mov	r2, #0
 688 0520 400052E3 	.LVL36:
 689              		mvn	r3, #0
 690 0524 0030A003 		str	r2, [r3, #-255]
 691 0528 B0308C01 		.loc 1 320 0
 692              	@ 320 "Serial.cpp" 1
 693              		 ldmfd sp!,{r1}
 694              	 msr   spsr_c,r1
 695              	 ldmfd sp!,{r0-r12,pc}^
 696              	@ 0 "" 2
 697              		.loc 1 322 0
 698 052c 0020A0E3 	.L59:
 699              	.LBB31:
 700 0530 0030E0E3 	.LBB30:
 701 0534 FF2003E5 	.LBB29:
 702              		.loc 1 201 0
 703              		ldr	r3, [ip, #20]
 704 0538 0200BDE8 		.loc 1 203 0
 705 053c 01F061E1 		ands	r4, r3, #158
 706 0540 FF9FFDE8 		.loc 1 201 0
 707              		and	r2, r3, #255
 708              	.LVL37:
 709              		.loc 1 203 0
 710              		bne	.L62
 711              		.loc 1 212 0
 712              		tst	r3, #1
ARM GAS  C:\Users\Chris\AppData\Local\Temp/ccSoaaaa.s 			page 21


 713              		beq	.L54
 714 0544 14309CE5 	.LBB28:
 715              		.loc 1 217 0
 716 0548 9E4013E2 		ldr	r1, .L63+4
 717              	.LVL38:
 718 054c FF2003E2 		mov	r0, #284
 719              		ldrh	r2, [r1, r0]
 720              	.LVL39:
 721 0550 0F00001A 		ldr	r3, [ip, #4]
 722              		add	r2, r1, r2
 723 0554 010013E3 		and	r3, r3, #255
 724 0558 F3FFFF0A 		strb	r3, [r2, #216]
 725              		.loc 1 218 0
 726              		add	r2, r1, r0
 727 055c 58109FE5 	.LVL40:
 728              		add	r2, r2, #2
 729 0560 470FA0E3 		ldrh	r3, [r1, r0]
 730 0564 B02091E1 		.loc 1 220 0
 731              		ldrh	r3, [r2, #0]
 732 0568 04309CE5 		cmp	r3, #64
 733 056c 022081E0 		.loc 1 222 0
 734 0570 FF3003E2 		streqh	r4, [r2, #0]	@ movhi
 735 0574 D830C2E5 		b	.L54
 736              	.LVL41:
 737 0578 002081E0 	.L62:
 738              	.LBE28:
 739 057c 022082E2 		.loc 1 207 0
 740 0580 B03091E1 		ldr	r3, .L63+4
 741              		str	r2, [r3, #280]
 742 0584 B030D2E1 		.loc 1 208 0
 743 0588 400053E3 		ldr	r3, [ip, #0]
 744              		b	.L54
 745 058c B040C201 	.LVL42:
 746 0590 E5FFFFEA 	.L61:
 747              		.loc 1 242 0
 748              		ldr	r2, .L63+4
 749              		ldr	r3, [r2, #280]
 750              		orr	r3, r3, #256
 751 0594 20309FE5 		str	r3, [r2, #280]
 752 0598 182183E5 		b	.L54
 753              	.L64:
 754 059c 00309CE5 		.align	2
 755 05a0 E1FFFFEA 	.L63:
 756              		.word	.LANCHOR0
 757              		.word	.LANCHOR1
 758              	.LBE29:
 759 05a4 10209FE5 	.LBE30:
 760 05a8 183192E5 	.LBE31:
 761 05ac 013C83E3 	.LFE6:
 762 05b0 183182E5 		.cantunwind
 763 05b4 DCFFFFEA 		.fnend
 764              		.size	_Z10Serial3ISRv, .-_Z10Serial3ISRv
 765              		.align	2
 766              		.global	_Z10Serial0ISRv
 767 05b8 00000000 		.type	_Z10Serial0ISRv, %function
 768 05bc 00000000 	_Z10Serial0ISRv:
 769              		.fnstart
ARM GAS  C:\Users\Chris\AppData\Local\Temp/ccSoaaaa.s 			page 22


 770              	.LFB3:
 771              		.loc 1 260 0
 772              		@ Function supports interworking.
 773              		@ Naked Function: prologue and epilogue provided by programmer.
 774              		@ args = 0, pretend = 0, frame = 0
 775              		@ frame_needed = 0, uses_anonymous_args = 0
 776              		.loc 1 263 0
 777              	@ 263 "Serial.cpp" 1
 778              		 sub   lr, lr,#4
 779              	 stmfd sp!,{r0-r12,lr}
 780              	 mrs   r1, spsr
 781              	 stmfd sp!,{r1}
 782              	@ 0 "" 2
 783              	.LBB36:
 784              	.LBB37:
 785              	.LBB38:
 786              		.loc 1 193 0
 787              		ldr	r2, .L77
 788              		ldr	r2, [r2, #0]
 789 05c0 04E04EE2 		ldr	r3, [r2, #8]
 790 05c4 FF5F2DE9 		.loc 1 195 0
 791 05c8 00104FE1 		mov	r3, r3, lsr #1
 792 05cc 02002DE9 		.loc 1 196 0
 793              		and	r1, r3, #7
 794              	.LVL43:
 795              		.loc 1 198 0
 796              		cmp	r1, #3
 797              		beq	.L73
 798 05d0 0C219FE5 		.loc 1 226 0
 799 05d4 002092E5 		cmp	r1, #2
 800 05d8 083092E5 		beq	.L74
 801              		.loc 1 239 0
 802 05dc A330A0E1 		cmp	r1, #6
 803              		beq	.L75
 804 05e0 071003E2 		.loc 1 244 0
 805              		cmp	r1, #1
 806              		bne	.L68
 807 05e4 030051E3 		.loc 1 247 0
 808 05e8 2300000A 		ldr	r3, [r2, #20]
 809              		.loc 1 249 0
 810 05ec 020051E3 		ands	r2, r3, #32
 811 05f0 0A00000A 		.loc 1 251 0
 812              		ldrne	r3, .L77+4
 813 05f4 060051E3 		.loc 1 255 0
 814 05f8 3400000A 		ldreq	r3, .L77+4
 815              		.loc 1 251 0
 816 05fc 010051E3 		strneh	r1, [r3, #70]	@ movhi
 817 0600 1700001A 		.loc 1 255 0
 818              		streqh	r2, [r3, #70]	@ movhi
 819 0604 143092E5 		b	.L68
 820              	.L74:
 821 0608 202013E2 		.loc 1 230 0
 822              		ldr	r0, .L77+4
 823 060c D4309F15 		mov	r3, #-536870912
 824              		add	r3, r3, #49152
 825 0610 D0309F05 		ldrh	r1, [r0, #68]
 826              	.LVL44:
ARM GAS  C:\Users\Chris\AppData\Local\Temp/ccSoaaaa.s 			page 23


 827 0614 B614C311 		ldr	r2, [r3, #0]
 828              		mov	r1, r1, asl #16
 829 0618 B624C301 		and	r2, r2, #255
 830 061c 100000EA 		strb	r2, [r0, r1, lsr #16]
 831              		.loc 1 231 0
 832              		ldrh	r3, [r0, #68]
 833 0620 C0009FE5 		add	r3, r3, #1
 834 0624 0E32A0E3 		mov	r3, r3, asl #16
 835 0628 033983E2 		mov	r3, r3, lsr #16
 836 062c B414D0E1 		strh	r3, [r0, #68]	@ movhi
 837              		.loc 1 234 0
 838 0630 002093E5 		ldrh	r2, [r0, #68]
 839 0634 0118A0E1 		cmp	r2, #64
 840 0638 FF2002E2 		.loc 1 236 0
 841 063c 2128C0E7 		moveq	r3, #0	@ movhi
 842              		streqh	r3, [r0, #68]	@ movhi
 843 0640 B434D0E1 	.LVL45:
 844 0644 013083E2 	.L68:
 845 0648 0338A0E1 	.LBE38:
 846 064c 2338A0E1 	.LBE37:
 847 0650 B434C0E1 	.LBE36:
 848              		.loc 1 269 0
 849 0654 B424D0E1 		mov	r2, #0
 850 0658 400052E3 		mvn	r3, #0
 851              		str	r2, [r3, #-255]
 852 065c 0030A003 		.loc 1 272 0
 853 0660 B434C001 	@ 272 "Serial.cpp" 1
 854              		 ldmfd sp!,{r1}
 855              	 msr   spsr_c,r1
 856              	 ldmfd sp!,{r0-r12,pc}^
 857              	@ 0 "" 2
 858              		.loc 1 274 0
 859              	.LVL46:
 860 0664 0020A0E3 	.L73:
 861 0668 0030E0E3 	.LBB42:
 862 066c FF2003E5 	.LBB41:
 863              	.LBB40:
 864              		.loc 1 201 0
 865 0670 0200BDE8 		ldr	r3, [r2, #20]
 866 0674 01F061E1 		.loc 1 203 0
 867 0678 FF9FFDE8 		ands	r0, r3, #158
 868              		.loc 1 201 0
 869              		and	r1, r3, #255
 870              	.LVL47:
 871              		.loc 1 203 0
 872              		bne	.L76
 873              		.loc 1 212 0
 874              		tst	r3, #1
 875              		beq	.L68
 876 067c 143092E5 	.LBB39:
 877              		.loc 1 217 0
 878 0680 9E0013E2 		ldr	r1, .L77+4
 879              	.LVL48:
 880 0684 FF1003E2 		ldrh	r3, [r1, #68]
 881              		ldr	r2, [r2, #4]
 882              		mov	r3, r3, asl #16
 883 0688 0C00001A 		and	r2, r2, #255
ARM GAS  C:\Users\Chris\AppData\Local\Temp/ccSoaaaa.s 			page 24


 884              		strb	r2, [r1, r3, lsr #16]
 885 068c 010013E3 		.loc 1 218 0
 886 0690 F3FFFF0A 		ldrh	r3, [r1, #68]
 887              		.loc 1 220 0
 888              		ldrh	r3, [r1, #70]
 889 0694 4C109FE5 		cmp	r3, #64
 890              		.loc 1 222 0
 891 0698 B434D1E1 		streqh	r0, [r1, #70]	@ movhi
 892 069c 042092E5 		b	.L68
 893 06a0 0338A0E1 	.LVL49:
 894 06a4 FF2002E2 	.L76:
 895 06a8 2328C1E7 	.LBE39:
 896              		.loc 1 207 0
 897 06ac B434D1E1 		ldr	r3, .L77+4
 898              		str	r1, [r3, #64]
 899 06b0 B634D1E1 		.loc 1 208 0
 900 06b4 400053E3 		ldr	r2, [r2, #0]
 901              		b	.L68
 902 06b8 B604C101 	.LVL50:
 903 06bc E8FFFFEA 	.L75:
 904              		.loc 1 242 0
 905              		ldr	r2, .L77+4
 906              		ldr	r3, [r2, #64]
 907              		orr	r3, r3, #256
 908 06c0 20309FE5 		str	r3, [r2, #64]
 909 06c4 401083E5 		b	.L68
 910              	.L78:
 911 06c8 002092E5 		.align	2
 912 06cc E4FFFFEA 	.L77:
 913              		.word	.LANCHOR0
 914              		.word	.LANCHOR1
 915              	.LBE40:
 916 06d0 10209FE5 	.LBE41:
 917 06d4 403092E5 	.LBE42:
 918 06d8 013C83E3 	.LFE3:
 919 06dc 403082E5 		.cantunwind
 920 06e0 DFFFFFEA 		.fnend
 921              		.size	_Z10Serial0ISRv, .-_Z10Serial0ISRv
 922              		.align	2
 923              		.global	_Z10Serial1ISRv
 924 06e4 00000000 		.type	_Z10Serial1ISRv, %function
 925 06e8 00000000 	_Z10Serial1ISRv:
 926              		.fnstart
 927              	.LFB4:
 928              		.loc 1 276 0
 929              		@ Function supports interworking.
 930              		@ Naked Function: prologue and epilogue provided by programmer.
 931              		@ args = 0, pretend = 0, frame = 0
 932              		@ frame_needed = 0, uses_anonymous_args = 0
 933              		.loc 1 279 0
 934              	@ 279 "Serial.cpp" 1
 935              		 sub   lr, lr,#4
 936              	 stmfd sp!,{r0-r12,lr}
 937              	 mrs   r1, spsr
 938              	 stmfd sp!,{r1}
 939              	@ 0 "" 2
 940              	.LBB47:
ARM GAS  C:\Users\Chris\AppData\Local\Temp/ccSoaaaa.s 			page 25


 941              	.LBB48:
 942              	.LBB49:
 943              		.loc 1 193 0
 944              		ldr	r2, .L91
 945              		ldr	r1, [r2, #4]
 946 06ec 04E04EE2 		ldr	r3, [r1, #8]
 947 06f0 FF5F2DE9 		.loc 1 195 0
 948 06f4 00104FE1 		mov	r3, r3, lsr #1
 949 06f8 02002DE9 		.loc 1 196 0
 950              		and	r2, r3, #7
 951              	.LVL51:
 952              		.loc 1 198 0
 953              		cmp	r2, #3
 954              		beq	.L87
 955 06fc 0C219FE5 		.loc 1 226 0
 956 0700 041092E5 		cmp	r2, #2
 957 0704 083091E5 		beq	.L88
 958              		.loc 1 239 0
 959 0708 A330A0E1 		cmp	r2, #6
 960              		beq	.L89
 961 070c 072003E2 		.loc 1 244 0
 962              		cmp	r2, #1
 963              		bne	.L82
 964 0710 030052E3 		.loc 1 247 0
 965 0714 2300000A 		ldr	r3, [r1, #20]
 966              		.loc 1 249 0
 967 0718 020052E3 		ands	r1, r3, #32
 968 071c 0A00000A 		.loc 1 251 0
 969              		ldrne	r3, .L91+4
 970 0720 060052E3 		.loc 1 255 0
 971 0724 3400000A 		ldreq	r3, .L91+4
 972              		.loc 1 251 0
 973 0728 010052E3 		strneh	r2, [r3, #142]	@ movhi
 974 072c 1700001A 		.loc 1 255 0
 975              		streqh	r1, [r3, #142]	@ movhi
 976 0730 143091E5 		b	.L82
 977              	.L88:
 978 0734 201013E2 		.loc 1 230 0
 979              		ldr	r0, .L91+4
 980 0738 D4309F15 		mov	r3, #-536870912
 981              		add	r3, r3, #49152
 982 073c D0309F05 		ldrh	r1, [r0, #140]
 983              		ldr	r2, [r3, #0]
 984 0740 BE28C311 	.LVL52:
 985              		add	r1, r0, r1
 986 0744 BE18C301 		and	r2, r2, #255
 987 0748 100000EA 		strb	r2, [r1, #72]
 988              		.loc 1 231 0
 989              		ldrh	r3, [r0, #140]
 990 074c C0009FE5 		add	r3, r3, #1
 991 0750 0E32A0E3 		mov	r3, r3, asl #16
 992 0754 033983E2 		mov	r3, r3, lsr #16
 993 0758 BC18D0E1 		strh	r3, [r0, #140]	@ movhi
 994 075c 002093E5 		.loc 1 234 0
 995              		ldrh	r2, [r0, #140]
 996 0760 011080E0 		cmp	r2, #64
 997 0764 FF2002E2 		.loc 1 236 0
ARM GAS  C:\Users\Chris\AppData\Local\Temp/ccSoaaaa.s 			page 26


 998 0768 4820C1E5 		moveq	r3, #0	@ movhi
 999              		streqh	r3, [r0, #140]	@ movhi
 1000 076c BC38D0E1 	.LVL53:
 1001 0770 013083E2 	.L82:
 1002 0774 0338A0E1 	.LBE49:
 1003 0778 2338A0E1 	.LBE48:
 1004 077c BC38C0E1 	.LBE47:
 1005              		.loc 1 285 0
 1006 0780 BC28D0E1 		mov	r2, #0
 1007 0784 400052E3 	.LVL54:
 1008              		mvn	r3, #0
 1009 0788 0030A003 		str	r2, [r3, #-255]
 1010 078c BC38C001 		.loc 1 288 0
 1011              	@ 288 "Serial.cpp" 1
 1012              		 ldmfd sp!,{r1}
 1013              	 msr   spsr_c,r1
 1014              	 ldmfd sp!,{r0-r12,pc}^
 1015              	@ 0 "" 2
 1016              		.loc 1 290 0
 1017 0790 0020A0E3 	.LVL55:
 1018              	.L87:
 1019 0794 0030E0E3 	.LBB53:
 1020 0798 FF2003E5 	.LBB52:
 1021              	.LBB51:
 1022              		.loc 1 201 0
 1023 079c 0200BDE8 		ldr	r3, [r1, #20]
 1024 07a0 01F061E1 		.loc 1 203 0
 1025 07a4 FF9FFDE8 		ands	ip, r3, #158
 1026              		.loc 1 201 0
 1027              		and	r2, r3, #255
 1028              	.LVL56:
 1029              		.loc 1 203 0
 1030              		bne	.L90
 1031              		.loc 1 212 0
 1032              		tst	r3, #1
 1033              		beq	.L82
 1034 07a8 143091E5 	.LBB50:
 1035              		.loc 1 217 0
 1036 07ac 9EC013E2 		ldr	r0, .L91+4
 1037              		ldrh	r3, [r0, #140]
 1038 07b0 FF2003E2 		ldr	r2, [r1, #4]
 1039              	.LVL57:
 1040              		add	r3, r0, r3
 1041 07b4 0C00001A 		and	r2, r2, #255
 1042              		strb	r2, [r3, #72]
 1043 07b8 010013E3 		.loc 1 218 0
 1044 07bc F3FFFF0A 		ldrh	r3, [r0, #140]
 1045              		.loc 1 220 0
 1046              		ldrh	r3, [r0, #142]
 1047 07c0 4C009FE5 		cmp	r3, #64
 1048 07c4 BC38D0E1 		.loc 1 222 0
 1049 07c8 042091E5 		streqh	ip, [r0, #142]	@ movhi
 1050              		b	.L82
 1051 07cc 033080E0 	.LVL58:
 1052 07d0 FF2002E2 	.L90:
 1053 07d4 4820C3E5 	.LBE50:
 1054              		.loc 1 207 0
ARM GAS  C:\Users\Chris\AppData\Local\Temp/ccSoaaaa.s 			page 27


 1055 07d8 BC38D0E1 		ldr	r3, .L91+4
 1056              		str	r2, [r3, #136]
 1057 07dc BE38D0E1 		.loc 1 208 0
 1058 07e0 400053E3 		ldr	r3, [r1, #0]
 1059              		b	.L82
 1060 07e4 BEC8C001 	.LVL59:
 1061 07e8 E8FFFFEA 	.L89:
 1062              		.loc 1 242 0
 1063              		ldr	r2, .L91+4
 1064              	.LVL60:
 1065              		ldr	r3, [r2, #136]
 1066 07ec 20309FE5 		orr	r3, r3, #256
 1067 07f0 882083E5 		str	r3, [r2, #136]
 1068              		b	.L82
 1069 07f4 003091E5 	.L92:
 1070 07f8 E4FFFFEA 		.align	2
 1071              	.L91:
 1072              		.word	.LANCHOR0
 1073              		.word	.LANCHOR1
 1074 07fc 10209FE5 	.LBE51:
 1075              	.LBE52:
 1076 0800 883092E5 	.LBE53:
 1077 0804 013C83E3 	.LFE4:
 1078 0808 883082E5 		.cantunwind
 1079 080c DFFFFFEA 		.fnend
 1080              		.size	_Z10Serial1ISRv, .-_Z10Serial1ISRv
 1081              		.align	2
 1082              		.global	_Z10Serial2ISRv
 1083 0810 00000000 		.type	_Z10Serial2ISRv, %function
 1084 0814 00000000 	_Z10Serial2ISRv:
 1085              		.fnstart
 1086              	.LFB5:
 1087              		.loc 1 292 0
 1088              		@ Function supports interworking.
 1089              		@ Naked Function: prologue and epilogue provided by programmer.
 1090              		@ args = 0, pretend = 0, frame = 0
 1091              		@ frame_needed = 0, uses_anonymous_args = 0
 1092              		.loc 1 295 0
 1093              	@ 295 "Serial.cpp" 1
 1094              		 sub   lr, lr,#4
 1095              	 stmfd sp!,{r0-r12,lr}
 1096              	 mrs   r1, spsr
 1097              	 stmfd sp!,{r1}
 1098              	@ 0 "" 2
 1099              	.LBB58:
 1100              	.LBB59:
 1101              	.LBB60:
 1102              		.loc 1 193 0
 1103              		ldr	r2, .L105
 1104              		ldr	r1, [r2, #8]
 1105 0818 04E04EE2 		ldr	r3, [r1, #8]
 1106 081c FF5F2DE9 		.loc 1 195 0
 1107 0820 00104FE1 		mov	r3, r3, lsr #1
 1108 0824 02002DE9 		.loc 1 196 0
 1109              		and	r2, r3, #7
 1110              	.LVL61:
 1111              		.loc 1 198 0
ARM GAS  C:\Users\Chris\AppData\Local\Temp/ccSoaaaa.s 			page 28


 1112              		cmp	r2, #3
 1113              		beq	.L101
 1114 0828 0C219FE5 		.loc 1 226 0
 1115 082c 081092E5 		cmp	r2, #2
 1116 0830 083091E5 		beq	.L102
 1117              		.loc 1 239 0
 1118 0834 A330A0E1 		cmp	r2, #6
 1119              		beq	.L103
 1120 0838 072003E2 		.loc 1 244 0
 1121              		cmp	r2, #1
 1122              		bne	.L96
 1123 083c 030052E3 		.loc 1 247 0
 1124 0840 2300000A 		ldr	r3, [r1, #20]
 1125              		.loc 1 249 0
 1126 0844 020052E3 		ands	r1, r3, #32
 1127 0848 0A00000A 		.loc 1 251 0
 1128              		ldrne	r3, .L105+4
 1129 084c 060052E3 		.loc 1 255 0
 1130 0850 3400000A 		ldreq	r3, .L105+4
 1131              		.loc 1 251 0
 1132 0854 010052E3 		strneh	r2, [r3, #214]	@ movhi
 1133 0858 1700001A 		.loc 1 255 0
 1134              		streqh	r1, [r3, #214]	@ movhi
 1135 085c 143091E5 		b	.L96
 1136              	.L102:
 1137 0860 201013E2 		.loc 1 230 0
 1138              		ldr	r0, .L105+4
 1139 0864 D4309F15 		mov	r3, #-536870912
 1140              		add	r3, r3, #49152
 1141 0868 D0309F05 		ldrh	r1, [r0, #212]
 1142              		ldr	r2, [r3, #0]
 1143 086c B62DC311 	.LVL62:
 1144              		add	r1, r0, r1
 1145 0870 B61DC301 		and	r2, r2, #255
 1146 0874 100000EA 		strb	r2, [r1, #144]
 1147              		.loc 1 231 0
 1148              		ldrh	r3, [r0, #212]
 1149 0878 C0009FE5 		add	r3, r3, #1
 1150 087c 0E32A0E3 		mov	r3, r3, asl #16
 1151 0880 033983E2 		mov	r3, r3, lsr #16
 1152 0884 B41DD0E1 		strh	r3, [r0, #212]	@ movhi
 1153 0888 002093E5 		.loc 1 234 0
 1154              		ldrh	r2, [r0, #212]
 1155 088c 011080E0 		cmp	r2, #64
 1156 0890 FF2002E2 		.loc 1 236 0
 1157 0894 9020C1E5 		moveq	r3, #0	@ movhi
 1158              		streqh	r3, [r0, #212]	@ movhi
 1159 0898 B43DD0E1 	.LVL63:
 1160 089c 013083E2 	.L96:
 1161 08a0 0338A0E1 	.LBE60:
 1162 08a4 2338A0E1 	.LBE59:
 1163 08a8 B43DC0E1 	.LBE58:
 1164              		.loc 1 301 0
 1165 08ac B42DD0E1 		mov	r2, #0
 1166 08b0 400052E3 	.LVL64:
 1167              		mvn	r3, #0
 1168 08b4 0030A003 		str	r2, [r3, #-255]
ARM GAS  C:\Users\Chris\AppData\Local\Temp/ccSoaaaa.s 			page 29


 1169 08b8 B43DC001 		.loc 1 304 0
 1170              	@ 304 "Serial.cpp" 1
 1171              		 ldmfd sp!,{r1}
 1172              	 msr   spsr_c,r1
 1173              	 ldmfd sp!,{r0-r12,pc}^
 1174              	@ 0 "" 2
 1175              		.loc 1 306 0
 1176 08bc 0020A0E3 	.LVL65:
 1177              	.L101:
 1178 08c0 0030E0E3 	.LBB64:
 1179 08c4 FF2003E5 	.LBB63:
 1180              	.LBB62:
 1181              		.loc 1 201 0
 1182 08c8 0200BDE8 		ldr	r3, [r1, #20]
 1183 08cc 01F061E1 		.loc 1 203 0
 1184 08d0 FF9FFDE8 		ands	ip, r3, #158
 1185              		.loc 1 201 0
 1186              		and	r2, r3, #255
 1187              	.LVL66:
 1188              		.loc 1 203 0
 1189              		bne	.L104
 1190              		.loc 1 212 0
 1191              		tst	r3, #1
 1192              		beq	.L96
 1193 08d4 143091E5 	.LBB61:
 1194              		.loc 1 217 0
 1195 08d8 9EC013E2 		ldr	r0, .L105+4
 1196              		ldrh	r3, [r0, #212]
 1197 08dc FF2003E2 		ldr	r2, [r1, #4]
 1198              	.LVL67:
 1199              		add	r3, r0, r3
 1200 08e0 0C00001A 		and	r2, r2, #255
 1201              		strb	r2, [r3, #144]
 1202 08e4 010013E3 		.loc 1 218 0
 1203 08e8 F3FFFF0A 		ldrh	r3, [r0, #212]
 1204              		.loc 1 220 0
 1205              		ldrh	r3, [r0, #214]
 1206 08ec 4C009FE5 		cmp	r3, #64
 1207 08f0 B43DD0E1 		.loc 1 222 0
 1208 08f4 042091E5 		streqh	ip, [r0, #214]	@ movhi
 1209              		b	.L96
 1210 08f8 033080E0 	.LVL68:
 1211 08fc FF2002E2 	.L104:
 1212 0900 9020C3E5 	.LBE61:
 1213              		.loc 1 207 0
 1214 0904 B43DD0E1 		ldr	r3, .L105+4
 1215              		str	r2, [r3, #208]
 1216 0908 B63DD0E1 		.loc 1 208 0
 1217 090c 400053E3 		ldr	r3, [r1, #0]
 1218              		b	.L96
 1219 0910 B6CDC001 	.LVL69:
 1220 0914 E8FFFFEA 	.L103:
 1221              		.loc 1 242 0
 1222              		ldr	r2, .L105+4
 1223              	.LVL70:
 1224              		ldr	r3, [r2, #208]
 1225 0918 20309FE5 		orr	r3, r3, #256
ARM GAS  C:\Users\Chris\AppData\Local\Temp/ccSoaaaa.s 			page 30


 1226 091c D02083E5 		str	r3, [r2, #208]
 1227              		b	.L96
 1228 0920 003091E5 	.L106:
 1229 0924 E4FFFFEA 		.align	2
 1230              	.L105:
 1231              		.word	.LANCHOR0
 1232              		.word	.LANCHOR1
 1233 0928 10209FE5 	.LBE62:
 1234              	.LBE63:
 1235 092c D03092E5 	.LBE64:
 1236 0930 013C83E3 	.LFE5:
 1237 0934 D03082E5 		.cantunwind
 1238 0938 DFFFFFEA 		.fnend
 1239              		.size	_Z10Serial2ISRv, .-_Z10Serial2ISRv
 1240              		.global	uartData
 1241              		.global	uartInts
 1242 093c 00000000 		.global	uartPins
 1243 0940 00000000 		.global	uartReg
 1244              		.data
 1245              		.align	2
 1246              		.set	.LANCHOR0,. + 0
 1247              		.type	uartReg, %object
 1248              		.size	uartReg, 16
 1249              	uartReg:
 1250              		.word	-536821760
 1251              		.word	-536805376
 1252              		.word	-536379392
 1253              		.word	-536363008
 1254              		.type	uartPins, %object
 1255              		.size	uartPins, 96
 1256              	uartPins:
 1257              		.word	-536690688
 1258              		.word	16
 1259              		.word	48
 1260              		.word	-536690688
 1261 0000 00C000E0 		.word	64
 1262 0004 000001E0 		.word	192
 1263 0008 008007E0 		.space	4
 1264 000c 00C007E0 		.word	1073741824
 1265              		.word	-1073741824
 1266              		.space	4
 1267              		.word	1
 1268 0010 00C002E0 		.word	3
 1269 0014 10000000 		.space	4
 1270 0018 30000000 		.word	16
 1271 001c 00C002E0 		.word	48
 1272 0020 40000000 		.space	4
 1273 0024 C0000000 		.word	64
 1274 0028 00000000 		.word	192
 1275 002c 00000040 		.space	4
 1276 0030 000000C0 		.word	16
 1277 0034 00000000 		.word	48
 1278 0038 01000000 		.space	4
 1279 003c 03000000 		.word	64
 1280 0040 00000000 		.word	192
 1281 0044 10000000 		.type	uartInts, %object
 1282 0048 30000000 		.size	uartInts, 32
ARM GAS  C:\Users\Chris\AppData\Local\Temp/ccSoaaaa.s 			page 31


 1283 004c 00000000 	uartInts:
 1284 0050 40000000 		.word	_Z10Serial0ISRv
 1285 0054 C0000000 		.byte	6
 1286 0058 00000000 		.byte	1
 1287 005c 10000000 		.space	2
 1288 0060 30000000 		.word	_Z10Serial1ISRv
 1289 0064 00000000 		.byte	7
 1290 0068 40000000 		.byte	1
 1291 006c C0000000 		.space	2
 1292              		.word	_Z10Serial2ISRv
 1293              		.byte	28
 1294              		.byte	1
 1295 0070 00000000 		.space	2
 1296 0074 06       		.word	_Z10Serial3ISRv
 1297 0075 01       		.byte	29
 1298 0076 0000     		.byte	1
 1299 0078 00000000 		.space	2
 1300 007c 07       		.bss
 1301 007d 01       		.align	2
 1302 007e 0000     		.set	.LANCHOR1,. + 0
 1303 0080 00000000 		.type	uartData, %object
 1304 0084 1C       		.size	uartData, 288
 1305 0085 01       	uartData:
 1306 0086 0000     		.space	288
 1307 0088 00000000 		.section	.debug_frame,"",%progbits
 1308 008c 1D       	.Lframe0:
 1309 008d 01       		.4byte	.LECIE0-.LSCIE0
 1310 008e 0000     	.LSCIE0:
 1311              		.4byte	0xffffffff
 1312              		.byte	0x1
 1313              		.ascii	"\000"
 1314              		.uleb128 0x1
 1315              		.sleb128 -4
 1316              		.byte	0xe
 1317 0000 00000000 		.byte	0xc
 1317      00000000 
 1317      00000000 
 1317      00000000 
 1317      00000000 
 1318              		.uleb128 0xd
 1319              		.uleb128 0x0
 1320 0000 0C000000 		.align	2
 1321              	.LECIE0:
 1322 0004 FFFFFFFF 	.LSFDE0:
 1323 0008 01       		.4byte	.LEFDE0-.LASFDE0
 1324 0009 00       	.LASFDE0:
 1325 000a 01       		.4byte	.Lframe0
 1326 000b 7C       		.4byte	.LFB2
 1327 000c 0E       		.4byte	.LFE2-.LFB2
 1328 000d 0C       		.byte	0x4
 1329 000e 0D       		.4byte	.LCFI0-.LFB2
 1330 000f 00       		.byte	0xe
 1331              		.uleb128 0x8
 1332              		.byte	0x4
 1333              		.4byte	.LCFI1-.LCFI0
 1334 0010 18000000 		.byte	0xe
 1335              		.uleb128 0x10
ARM GAS  C:\Users\Chris\AppData\Local\Temp/ccSoaaaa.s 			page 32


 1336 0014 00000000 		.byte	0x85
 1337 0018 00000000 		.uleb128 0x1
 1338 001c A8010000 		.byte	0x84
 1339 0020 44       		.uleb128 0x2
 1340              		.align	2
 1341 0021 0E       	.LEFDE0:
 1342 0022 08       	.LSFDE2:
 1343 0023 44       		.4byte	.LEFDE2-.LASFDE2
 1344              	.LASFDE2:
 1345 0024 0E       		.4byte	.Lframe0
 1346 0025 10       		.4byte	.LFB8
 1347 0026 85       		.4byte	.LFE8-.LFB8
 1348 0027 01       		.align	2
 1349 0028 84       	.LEFDE2:
 1350 0029 02       	.LSFDE4:
 1351 002a 0000     		.4byte	.LEFDE4-.LASFDE4
 1352              	.LASFDE4:
 1353              		.4byte	.Lframe0
 1354 002c 0C000000 		.4byte	.LFB9
 1355              		.4byte	.LFE9-.LFB9
 1356 0030 00000000 		.align	2
 1357 0034 A8010000 	.LEFDE4:
 1358 0038 28000000 	.LSFDE6:
 1359              		.4byte	.LEFDE6-.LASFDE6
 1360              	.LASFDE6:
 1361              		.4byte	.Lframe0
 1362 003c 0C000000 		.4byte	.LFB10
 1363              		.4byte	.LFE10-.LFB10
 1364 0040 00000000 		.byte	0x4
 1365 0044 D0010000 		.4byte	.LCFI2-.LFB10
 1366 0048 24000000 		.byte	0xe
 1367              		.uleb128 0x4
 1368              		.byte	0x84
 1369              		.uleb128 0x1
 1370 004c 14000000 		.align	2
 1371              	.LEFDE6:
 1372 0050 00000000 	.LSFDE8:
 1373 0054 F4010000 		.4byte	.LEFDE8-.LASFDE8
 1374 0058 44000000 	.LASFDE8:
 1375 005c 4C       		.4byte	.Lframe0
 1376              		.4byte	.LFB11
 1377 005d 0E       		.4byte	.LFE11-.LFB11
 1378 005e 04       		.byte	0x4
 1379 005f 84       		.4byte	.LCFI3-.LFB11
 1380 0060 01       		.byte	0xe
 1381 0061 000000   		.uleb128 0x14
 1382              		.byte	0x88
 1383              		.uleb128 0x1
 1384 0064 1C000000 		.byte	0x87
 1385              		.uleb128 0x2
 1386 0068 00000000 		.byte	0x86
 1387 006c 38020000 		.uleb128 0x3
 1388 0070 94000000 		.byte	0x85
 1389 0074 44       		.uleb128 0x4
 1390              		.byte	0x84
 1391 0075 0E       		.uleb128 0x5
 1392 0076 14       		.align	2
ARM GAS  C:\Users\Chris\AppData\Local\Temp/ccSoaaaa.s 			page 33


 1393 0077 88       	.LEFDE8:
 1394 0078 01       	.LSFDE10:
 1395 0079 87       		.4byte	.LEFDE10-.LASFDE10
 1396 007a 02       	.LASFDE10:
 1397 007b 86       		.4byte	.Lframe0
 1398 007c 03       		.4byte	.LFB13
 1399 007d 85       		.4byte	.LFE13-.LFB13
 1400 007e 04       		.align	2
 1401 007f 84       	.LEFDE10:
 1402 0080 05       	.LSFDE12:
 1403 0081 000000   		.4byte	.LEFDE12-.LASFDE12
 1404              	.LASFDE12:
 1405              		.4byte	.Lframe0
 1406 0084 0C000000 		.4byte	.LFB7
 1407              		.4byte	.LFE7-.LFB7
 1408 0088 00000000 		.byte	0x4
 1409 008c CC020000 		.4byte	.LCFI4-.LFB7
 1410 0090 44000000 		.byte	0xd
 1411              		.uleb128 0xc
 1412              		.byte	0x4
 1413              		.4byte	.LCFI5-.LCFI4
 1414 0094 28000000 		.byte	0x8e
 1415              		.uleb128 0x2
 1416 0098 00000000 		.byte	0x8d
 1417 009c 10030000 		.uleb128 0x3
 1418 00a0 64010000 		.byte	0x8b
 1419 00a4 44       		.uleb128 0x4
 1420              		.byte	0x8a
 1421 00a5 0D       		.uleb128 0x5
 1422 00a6 0C       		.byte	0x89
 1423 00a7 44       		.uleb128 0x6
 1424              		.byte	0x88
 1425 00a8 8E       		.uleb128 0x7
 1426 00a9 02       		.byte	0x87
 1427 00aa 8D       		.uleb128 0x8
 1428 00ab 03       		.byte	0x86
 1429 00ac 8B       		.uleb128 0x9
 1430 00ad 04       		.byte	0x85
 1431 00ae 8A       		.uleb128 0xa
 1432 00af 05       		.byte	0x84
 1433 00b0 89       		.uleb128 0xb
 1434 00b1 06       		.byte	0x4
 1435 00b2 88       		.4byte	.LCFI6-.LCFI5
 1436 00b3 07       		.byte	0xc
 1437 00b4 87       		.uleb128 0xb
 1438 00b5 08       		.uleb128 0x4
 1439 00b6 86       		.align	2
 1440 00b7 09       	.LEFDE12:
 1441 00b8 85       	.LSFDE14:
 1442 00b9 0A       		.4byte	.LEFDE14-.LASFDE14
 1443 00ba 84       	.LASFDE14:
 1444 00bb 0B       		.4byte	.Lframe0
 1445 00bc 44       		.4byte	.LFB6
 1446              		.4byte	.LFE6-.LFB6
 1447 00bd 0C       		.align	2
 1448 00be 0B       	.LEFDE14:
 1449 00bf 04       	.LSFDE16:
ARM GAS  C:\Users\Chris\AppData\Local\Temp/ccSoaaaa.s 			page 34


 1450              		.4byte	.LEFDE16-.LASFDE16
 1451              	.LASFDE16:
 1452              		.4byte	.Lframe0
 1453 00c0 0C000000 		.4byte	.LFB3
 1454              		.4byte	.LFE3-.LFB3
 1455 00c4 00000000 		.align	2
 1456 00c8 74040000 	.LEFDE16:
 1457 00cc 4C010000 	.LSFDE18:
 1458              		.4byte	.LEFDE18-.LASFDE18
 1459              	.LASFDE18:
 1460              		.4byte	.Lframe0
 1461 00d0 0C000000 		.4byte	.LFB4
 1462              		.4byte	.LFE4-.LFB4
 1463 00d4 00000000 		.align	2
 1464 00d8 C0050000 	.LEFDE18:
 1465 00dc 2C010000 	.LSFDE20:
 1466              		.4byte	.LEFDE20-.LASFDE20
 1467              	.LASFDE20:
 1468              		.4byte	.Lframe0
 1469 00e0 0C000000 		.4byte	.LFB5
 1470              		.4byte	.LFE5-.LFB5
 1471 00e4 00000000 		.align	2
 1472 00e8 EC060000 	.LEFDE20:
 1473 00ec 2C010000 		.text
 1474              	.Letext0: