ARM GAS  C:\Users\Chris\AppData\Local\Temp/ccGSaaaa.s 			page 1


   1              		.cpu arm7tdmi
   2              		.fpu softvfp
   3              		.eabi_attribute 20, 1
   4              		.eabi_attribute 21, 1
   5              		.eabi_attribute 23, 3
   6              		.eabi_attribute 24, 1
   7              		.eabi_attribute 25, 1
   8              		.eabi_attribute 26, 1
   9              		.eabi_attribute 30, 2
  10              		.eabi_attribute 18, 4
  11              		.file	"sys_init.cpp"
  18 0000 91010000 		.text
  18      0200A400 
  18      00000201 
  18      FB0E0D00 
  18      01010101 
  19              	.Ltext0:
  20              		.align	2
  21              		.global	_Z16oneMillisHandlerv
  22              		.type	_Z16oneMillisHandlerv, %function
  23              	_Z16oneMillisHandlerv:
  24              		.fnstart
  25              	.LFB3:
  26              		.file 1 "sys_init.cpp"
   1:sys_init.cpp  **** #include <stdint.h>
   2:sys_init.cpp  **** 
   3:sys_init.cpp  **** #include "LPC_REGS.h"
   4:sys_init.cpp  **** #include "sys_config.h"
   5:sys_init.cpp  **** 
   6:sys_init.cpp  **** // setup parameters
   7:sys_init.cpp  **** #define T0_PCLK_DIV     1
   8:sys_init.cpp  **** #define sysTICSperSEC   (PCLK / T0_PCLK_DIV)
   9:sys_init.cpp  **** 
  10:sys_init.cpp  **** #define USECS_128	    (uint32_t)((128e-6 * sysTICSperSEC) + .5)
  11:sys_init.cpp  **** #define ONE_MS          (uint32_t)((  1e-3 * sysTICSperSEC) + .5)
  12:sys_init.cpp  **** #define SYSTIME_INT_DT          (USECS_128)
  13:sys_init.cpp  **** 
  14:sys_init.cpp  **** #define ISR_ENTRY() asm volatile(" sub   lr, lr,#4\n" \
  15:sys_init.cpp  ****                                  " stmfd sp!,{r0-r12,lr}\n" \
  16:sys_init.cpp  ****                                  " mrs   r1, spsr\n" \
  17:sys_init.cpp  ****                                  " stmfd sp!,{r1}")
  18:sys_init.cpp  **** 
  19:sys_init.cpp  **** 
  20:sys_init.cpp  **** #define ISR_EXIT()  asm volatile(" ldmfd sp!,{r1}\n" \
  21:sys_init.cpp  ****                                  " msr   spsr_c,r1\n" \
  22:sys_init.cpp  ****                                  " ldmfd sp!,{r0-r12,pc}^")
  23:sys_init.cpp  **** 
  24:sys_init.cpp  **** void sysTimeISR(void) __attribute__((naked));
  25:sys_init.cpp  **** static void initSysTime(void);
  26:sys_init.cpp  **** void initADC(void);
  27:sys_init.cpp  **** void oneMillisHandler(void);
ARM GAS  C:\Users\Chris\AppData\Local\Temp/ccGSaaaa.s 			page 2


  28:sys_init.cpp  **** 
  29:sys_init.cpp  **** unsigned int adcSamplesNorth=0;
  30:sys_init.cpp  **** unsigned int adcSamplesSouth=0;
  31:sys_init.cpp  **** unsigned int adcSamplesEast=0;
  32:sys_init.cpp  **** unsigned int adcSamplesWest=0;
  33:sys_init.cpp  **** 
  34:sys_init.cpp  **** unsigned int currentNorth=0;
  35:sys_init.cpp  **** unsigned int currentSouth=0;
  36:sys_init.cpp  **** unsigned int currentEast=0;
  37:sys_init.cpp  **** unsigned int currentWest=0;
  38:sys_init.cpp  **** 
  39:sys_init.cpp  **** unsigned char millisCntr=0;
  40:sys_init.cpp  **** volatile long millis=0;
  41:sys_init.cpp  **** 
  42:sys_init.cpp  **** //********************************
  43:sys_init.cpp  **** //* The System Timer Interrupt
  44:sys_init.cpp  **** //* Every 128 microseconds
  45:sys_init.cpp  **** void sysTimeISR(void)
  46:sys_init.cpp  **** {
  47:sys_init.cpp  **** 	/* Enter */
  48:sys_init.cpp  ****    ISR_ENTRY();
  49:sys_init.cpp  **** 	T0MR0 += SYSTIME_INT_DT - 1; // next match-value
  50:sys_init.cpp  **** 	T0IR = TxIR_MR0_Interrupt;   // clear interrupt by writing an IR-bit
  51:sys_init.cpp  **** 
  52:sys_init.cpp  **** 	/* Store the 4 current measurements, for averaging later */
  53:sys_init.cpp  **** 	adcSamplesNorth += AD0DR0 >> 6;
  54:sys_init.cpp  **** 	adcSamplesSouth += AD0DR1 >> 6;
  55:sys_init.cpp  **** 	adcSamplesEast  += AD0DR2 >> 6;
  56:sys_init.cpp  **** 	adcSamplesWest  += AD0DR3 >> 6;
  57:sys_init.cpp  **** 
  58:sys_init.cpp  ****    /* The 1 millisecond counter check. 
  59:sys_init.cpp  ****    	  128usecs * 8 = 1.024 milliseconds */
  60:sys_init.cpp  ****    millisCntr+=1;
  61:sys_init.cpp  ****    if (millisCntr >= 8)
  62:sys_init.cpp  ****    {
  63:sys_init.cpp  ****       oneMillisHandler();
  64:sys_init.cpp  ****       millisCntr = 0;
  65:sys_init.cpp  ****    }
  66:sys_init.cpp  **** 
  67:sys_init.cpp  **** 	/* Exit */
  68:sys_init.cpp  **** 	VICVectAddr = 0x00000000;             // clear this interrupt from the VIC
  69:sys_init.cpp  **** 	ISR_EXIT();
  70:sys_init.cpp  **** }
  71:sys_init.cpp  **** 
  72:sys_init.cpp  **** //******************************************
  73:sys_init.cpp  **** // The one (1.024) millisecond handler.
  74:sys_init.cpp  **** // This function averages the ADC data.
  75:sys_init.cpp  **** void oneMillisHandler(void)
  27              	upports interworking.
  28              		@ args = 0, pretend = 0, frame = 0
  29              		@ frame_needed = 0, uses_anonymous_args = 0
  30              		@ link register save eliminated.
  31              		.loc 1 79 0
  76:sys_init.cpp  **** {
  77:sys_init.cpp  **** 		/* 8 ADC samples taken,
  78:sys_init.cpp  ****          so lets divide to get the average. */
  79:sys_init.cpp  **** 	   currentNorth = adcSamplesNorth>>3;
ARM GAS  C:\Users\Chris\AppData\Local\Temp/ccGSaaaa.s 			page 3


  32              	r3, .L3
  33 0000 58309FE5 		.loc 1 75 0
  34              		stmfd	sp!, {r4, r5}
  35 0004 30002DE9 	.LCFI0:
  36              		.loc 1 79 0
  37              		ldr	r0, [r3, #4]
  38 0008 040093E5 		.loc 1 80 0
  80:sys_init.cpp  ****       currentSouth = adcSamplesSouth>>3;
  39              	, [r3, #12]
  40 000c 0CC093E5 		.loc 1 81 0
  81:sys_init.cpp  ****       currentEast = adcSamplesEast>>3;
  41              	dr	r4, [r3, #20]
  42 0010 144093E5 		.loc 1 82 0
  82:sys_init.cpp  ****       currentWest = adcSamplesWest>>3;
  43              	dr	r5, [r3, #28]
  44 0014 1C5093E5 		.loc 1 89 0
  83:sys_init.cpp  **** 
  84:sys_init.cpp  **** 		/* Reset the values. */
  85:sys_init.cpp  ****       adcSamplesNorth = 0;
  86:sys_init.cpp  ****       adcSamplesSouth = 0;
  87:sys_init.cpp  ****       adcSamplesEast  = 0;
  88:sys_init.cpp  ****       adcSamplesWest  = 0;
  89:sys_init.cpp  **** 	  millis++;
  45              	dr	r2, [r3, #32]
  46 0018 202093E5 		.loc 1 85 0
  47              		mov	r1, #0
  48 001c 0010A0E3 		.loc 1 79 0
  49              		mov	r0, r0, lsr #3
  50 0020 A001A0E1 		.loc 1 80 0
  51              		mov	ip, ip, lsr #3
  52 0024 ACC1A0E1 		.loc 1 81 0
  53              		mov	r4, r4, lsr #3
  54 0028 A441A0E1 		.loc 1 82 0
  55              		mov	r5, r5, lsr #3
  56 002c A551A0E1 		.loc 1 89 0
  57              		add	r2, r2, #1
  58 0030 012082E2 		str	r2, [r3, #32]
  59 0034 202083E5 		.loc 1 79 0
  60              		str	r0, [r3, #0]
  61 0038 000083E5 		.loc 1 80 0
  62              		str	ip, [r3, #8]
  63 003c 08C083E5 		.loc 1 81 0
  64              		str	r4, [r3, #16]
  65 0040 104083E5 		.loc 1 82 0
  66              		str	r5, [r3, #24]
  67 0044 185083E5 		.loc 1 88 0
  68              		str	r1, [r3, #28]
  69 0048 1C1083E5 		.loc 1 85 0
  70              		str	r1, [r3, #4]
  71 004c 041083E5 		.loc 1 86 0
  72              		str	r1, [r3, #12]
  73 0050 0C1083E5 		.loc 1 87 0
  74              		str	r1, [r3, #20]
  75 0054 141083E5 		.loc 1 90 0
  90:sys_init.cpp  **** }
  76              	:
  77 0058 3000BDE8 		.align	2
ARM GAS  C:\Users\Chris\AppData\Local\Temp/ccGSaaaa.s 			page 4


  78 005c 1EFF2FE1 	.L3:
  79              		.word	.LANCHOR0
  80              	.LFE3:
  81              		.cantunwind
  82 0060 00000000 		.fnend
  83              		.size	_Z16oneMillisHandlerv, .-_Z16oneMillisHandlerv
  84              		.align	2
  85              		.global	_Z7sysInitv
  86              		.type	_Z7sysInitv, %function
  87              	_Z7sysInitv:
  88              		.fnstart
  89              	.LFB6:
  90              		.loc 1 211 0
  91              		@ Function supports interworking.
  92              		@ args = 0, pretend = 0, frame = 0
  91:sys_init.cpp  **** 
  92:sys_init.cpp  **** /******************************************************************************
  93:sys_init.cpp  ****  *
  94:sys_init.cpp  ****  * Function Name: configPLL()
  95:sys_init.cpp  ****  *
  96:sys_init.cpp  ****  * Description:
  97:sys_init.cpp  ****  *    This function starts up the PLL then sets up the GPIO pins before
  98:sys_init.cpp  ****  *    waiting for the PLL to lock.  It finally engages the PLL and
  99:sys_init.cpp  ****  *    returns
 100:sys_init.cpp  ****  *
 101:sys_init.cpp  ****  * Calling Sequence: 
 102:sys_init.cpp  ****  *    void
 103:sys_init.cpp  ****  *
 104:sys_init.cpp  ****  * Returns:
 105:sys_init.cpp  ****  *    void
 106:sys_init.cpp  ****  * partily based on code for NXP example collection
 107:sys_init.cpp  ****  *****************************************************************************/
 108:sys_init.cpp  **** static void configPLL(void)
 109:sys_init.cpp  **** {
 110:sys_init.cpp  **** 	uint32_t readback;
 111:sys_init.cpp  **** 
 112:sys_init.cpp  **** 	// check if PLL connected, disconnect if yes
 113:sys_init.cpp  **** 	if ( PLLSTAT & PLLSTAT_PLLC ) {
 114:sys_init.cpp  **** 		PLLCON = PLLCON_PLLE;       /* Enable PLL, disconnected ( PLLC = 0 )*/
 115:sys_init.cpp  **** 		PLLFEED = 0xaa;
 116:sys_init.cpp  **** 		PLLFEED = 0x55;
 117:sys_init.cpp  **** 	}
 118:sys_init.cpp  **** 
 119:sys_init.cpp  **** 	PLLCON  = 0;        /* Disable PLL, disconnected */
 120:sys_init.cpp  **** 	PLLFEED = 0xaa;
 121:sys_init.cpp  **** 	PLLFEED = 0x55;
 122:sys_init.cpp  **** 
 123:sys_init.cpp  **** 	SCS |= SCS_OSCEN;   /* Enable main OSC, SCS Man p.28 */
 124:sys_init.cpp  **** 	while( !( SCS & SCS_OSCSTAT ) ) {
 125:sys_init.cpp  **** 		;	/* Wait until main OSC is usable */
 126:sys_init.cpp  **** 	}
 127:sys_init.cpp  **** 
 128:sys_init.cpp  **** 	CLKSRCSEL = CLKSRC_MAIN_OSC;   /* select main OSC as the PLL clock source */
 129:sys_init.cpp  **** 
 130:sys_init.cpp  **** 	PLLCFG = PLLCFG_MSEL | PLLCFG_NSEL;
 131:sys_init.cpp  **** 	PLLFEED = 0xaa;
 132:sys_init.cpp  **** 	PLLFEED = 0x55;
ARM GAS  C:\Users\Chris\AppData\Local\Temp/ccGSaaaa.s 			page 5


 133:sys_init.cpp  **** 	
 134:sys_init.cpp  **** 	PLLCON = PLLCON_PLLE;       /* Enable PLL, disconnected ( PLLC = 0 ) */
 135:sys_init.cpp  **** 	PLLFEED = 0xaa;
 136:sys_init.cpp  **** 	PLLFEED = 0x55;
 137:sys_init.cpp  **** 	
 138:sys_init.cpp  **** 	CCLKCFG = CCLKCFG_CCLKSEL_VAL;     /* Set clock divider, Manual p.45 */
 139:sys_init.cpp  **** 
 140:sys_init.cpp  **** //#if USE_USB
 141:sys_init.cpp  **** //	USBCLKCFG = USBCLKDivValue; /* usbclk = 288 MHz/6 = 48 MHz */
 142:sys_init.cpp  **** //#endif
 143:sys_init.cpp  **** 	
 144:sys_init.cpp  **** 	while ( ( PLLSTAT & PLLSTAT_PLOCK ) == 0 )  {
 145:sys_init.cpp  **** 		; /* Check lock bit status */
 146:sys_init.cpp  **** 	}
 147:sys_init.cpp  **** 	
 148:sys_init.cpp  **** 	readback = PLLSTAT & 0x00FF7FFF;
 149:sys_init.cpp  **** 	while ( readback != (PLLCFG_MSEL | PLLCFG_NSEL) )
 150:sys_init.cpp  **** 	{
 151:sys_init.cpp  **** 		; // stall - invalid readback
 152:sys_init.cpp  **** 	}
 153:sys_init.cpp  **** 	
 154:sys_init.cpp  **** 	PLLCON = ( PLLCON_PLLE | PLLCON_PLLC );  /* enable and connect */
 155:sys_init.cpp  **** 	PLLFEED = 0xaa;
 156:sys_init.cpp  **** 	PLLFEED = 0x55;
 157:sys_init.cpp  **** 	while ( ((PLLSTAT & PLLSTAT_PLLC) == 0) ) {
 158:sys_init.cpp  **** 		;  /* Check connect bit status, wait for connect */
 159:sys_init.cpp  **** 	}
 160:sys_init.cpp  **** }
 161:sys_init.cpp  **** 
 162:sys_init.cpp  **** static void lowInit(void)
 163:sys_init.cpp  **** {
 164:sys_init.cpp  **** 	configPLL();
 165:sys_init.cpp  **** 	
 166:sys_init.cpp  **** 	// setup & enable the MAM
 167:sys_init.cpp  **** 	MAMCR = MAMCR_OFF;
 168:sys_init.cpp  **** #if CCLK < 20000000
 169:sys_init.cpp  **** 	MAMTIM = 1;
 170:sys_init.cpp  **** #elif CCLK < 40000000
 171:sys_init.cpp  **** 	MAMTIM = 2;
 172:sys_init.cpp  **** #else
 173:sys_init.cpp  **** 	MAMTIM = 3;
 174:sys_init.cpp  **** #endif
 175:sys_init.cpp  **** 	MAMCR = MAMCR_FULL;
 176:sys_init.cpp  **** 	
 177:sys_init.cpp  **** 	// set the peripheral bus speed
 178:sys_init.cpp  **** 	// value computed from config.h
 179:sys_init.cpp  **** 	
 180:sys_init.cpp  **** #if PBSD == 4
 181:sys_init.cpp  **** 	PCLKSEL0 = 0x00000000;	/* PCLK is 1/4 CCLK */
 182:sys_init.cpp  **** 	PCLKSEL1 = 0x00000000;
 183:sys_init.cpp  **** #elif PBSD == 2
 184:sys_init.cpp  **** 	PCLKSEL0 = 0xAAAAAAAA;	/* PCLK is 1/2 CCLK */
 185:sys_init.cpp  **** 	PCLKSEL1 = 0xAAAAAAAA;
 186:sys_init.cpp  **** #elif PBSD == 1
 187:sys_init.cpp  **** 	PCLKSEL0 = 0x55555555;	/* PCLK is the same as CCLK */
 188:sys_init.cpp  **** 	PCLKSEL1 = 0x55555555;
 189:sys_init.cpp  **** #else
ARM GAS  C:\Users\Chris\AppData\Local\Temp/ccGSaaaa.s 			page 6


 190:sys_init.cpp  **** #error invalid p-clock divider    
 191:sys_init.cpp  **** #endif
 192:sys_init.cpp  **** 
 193:sys_init.cpp  **** 	return;
 194:sys_init.cpp  **** }
 195:sys_init.cpp  **** 
 196:sys_init.cpp  **** /******************************************************************************
 197:sys_init.cpp  ****  *
 198:sys_init.cpp  ****  * Function Name: sysInit()
 199:sys_init.cpp  ****  *
 200:sys_init.cpp  ****  * Description:
 201:sys_init.cpp  ****  *    This function is responsible for initializing the program
 202:sys_init.cpp  ****  *    specific hardware
 203:sys_init.cpp  ****  *
 204:sys_init.cpp  ****  * Calling Sequence: 
 205:sys_init.cpp  ****  *    void
 206:sys_init.cpp  ****  *
 207:sys_init.cpp  ****  * Returns:
 208:sys_init.cpp  ****  *    void
 209:sys_init.cpp  ****  *
 210:sys_init.cpp  ****  *****************************************************************************/
 211:sys_init.cpp  **** void sysInit(void)
  93              	 0, uses_anonymous_args = 0
  94              		@ link register save eliminated.
  95              	.LBB15:
  96              	.LBB16:
  97              	.LBB19:
  98              	.LBB21:
  99              	.LBB22:
 100              	.LBB23:
 101              		.loc 1 113 0
 102              		mov	r1, #-536870912
 103              		add	r1, r1, #2080768
 104              		ldr	r3, [r1, #136]
 105 0064 0E12A0E3 		tst	r3, #33554432
 106 0068 7F1981E2 	.LBE23:
 107 006c 883091E5 	.LBE22:
 108 0070 020413E3 	.LBE21:
 109              	.LBE19:
 110              	.LBE16:
 111              	.LBE15:
 112              		.loc 1 211 0
 113              		str	r4, [sp, #-4]!
 114              	.LCFI1:
 115              	.LBB40:
 116 0074 04402DE5 	.LBB28:
 117              	.LBB18:
 118              	.LBB20:
 119              	.LBB25:
 120              	.LBB24:
 121              		.loc 1 113 0
 122              		beq	.L6
 123              		.loc 1 114 0
 124              		mov	r3, #1
 125 0078 0500000A 		str	r3, [r1, #128]
 126              		.loc 1 115 0
 127 007c 0130A0E3 		mov	r2, #170
ARM GAS  C:\Users\Chris\AppData\Local\Temp/ccGSaaaa.s 			page 7


 128 0080 803081E5 		.loc 1 116 0
 129              		add	r3, r3, #84
 130 0084 AA20A0E3 		.loc 1 115 0
 131              		str	r2, [r1, #140]
 132 0088 543083E2 		.loc 1 116 0
 133              		str	r3, [r1, #140]
 134 008c 8C2081E5 	.L6:
 135              		.loc 1 119 0
 136 0090 8C3081E5 		mov	r2, #-536870912
 137              		add	r2, r2, #2080768
 138              		mov	r3, #0
 139 0094 0E22A0E3 		.loc 1 120 0
 140 0098 7F2982E2 		mov	r1, #170
 141 009c 0030A0E3 		.loc 1 121 0
 142              		mov	r0, #85
 143 00a0 AA10A0E3 		.loc 1 119 0
 144              		str	r3, [r2, #128]
 145 00a4 5500A0E3 		.loc 1 120 0
 146              		str	r1, [r2, #140]
 147 00a8 803082E5 		.loc 1 121 0
 148              		str	r0, [r2, #140]
 149 00ac 8C1082E5 		.loc 1 123 0
 150              		ldr	r3, [r2, #416]
 151 00b0 8C0082E5 		orr	r3, r3, #32
 152              		str	r3, [r2, #416]
 153 00b4 A03192E5 	.L7:
 154 00b8 203083E3 		.loc 1 124 0
 155 00bc A03182E5 		ldr	r3, [r2, #416]
 156              		mov	ip, #-536870912
 157              		tst	r3, #64
 158 00c0 A03192E5 		add	ip, ip, #2080768
 159 00c4 0EC2A0E3 		beq	.L7
 160 00c8 400013E3 		.loc 1 128 0
 161 00cc 7FC98CE2 		mov	r2, #1
 162 00d0 FAFFFF0A 		.loc 1 130 0
 163              		mov	r3, #11
 164 00d4 0120A0E3 		.loc 1 128 0
 165              		str	r2, [ip, #268]
 166 00d8 0B30A0E3 		.loc 1 131 0
 167              		mov	r1, #170
 168 00dc 0C218CE5 		.loc 1 130 0
 169              		str	r3, [ip, #132]
 170 00e0 AA10A0E3 		.loc 1 132 0
 171              		mov	r0, #85
 172 00e4 84308CE5 		.loc 1 138 0
 173              		sub	r3, r3, #8
 174 00e8 5500A0E3 		.loc 1 131 0
 175              		str	r1, [ip, #140]
 176 00ec 083043E2 		.loc 1 132 0
 177              		str	r0, [ip, #140]
 178 00f0 8C108CE5 		.loc 1 134 0
 179              		str	r2, [ip, #128]
 180 00f4 8C008CE5 		.loc 1 135 0
 181              		str	r1, [ip, #140]
 182 00f8 80208CE5 		.loc 1 136 0
 183              		str	r0, [ip, #140]
 184 00fc 8C108CE5 		.loc 1 138 0
ARM GAS  C:\Users\Chris\AppData\Local\Temp/ccGSaaaa.s 			page 8


 185              		str	r3, [ip, #260]
 186 0100 8C008CE5 		.loc 1 144 0
 187              		mov	r2, ip
 188 0104 04318CE5 	.L8:
 189              		ldr	r3, [r2, #136]
 190 0108 0C20A0E1 		mov	r1, #-536870912
 191              		tst	r3, #67108864
 192 010c 883092E5 		add	r1, r1, #2080768
 193 0110 0E12A0E3 		beq	.L8
 194 0114 010313E3 		.loc 1 148 0
 195 0118 7F1981E2 		ldr	r3, [r1, #136]
 196 011c FAFFFF0A 		.loc 1 149 0
 197              		bic	r3, r3, #-16777216
 198 0120 883091E5 		bic	r3, r3, #32768
 199              		cmp	r3, #11
 200 0124 FF34C3E3 		bne	.L9
 201 0128 0239C3E3 		.loc 1 154 0
 202 012c 0B0053E3 		sub	r3, r3, #8
 203 0130 4400001A 		str	r3, [r1, #128]
 204              		.loc 1 155 0
 205 0134 083043E2 		mov	r2, #170
 206 0138 803081E5 		.loc 1 156 0
 207              		add	r3, r3, #82
 208 013c AA20A0E3 		.loc 1 155 0
 209              		str	r2, [r1, #140]
 210 0140 523083E2 		.loc 1 156 0
 211              		str	r3, [r1, #140]
 212 0144 8C2081E5 		.loc 1 157 0
 213              		mov	r2, r1
 214 0148 8C3081E5 	.L10:
 215              		ldr	r3, [r2, #136]
 216 014c 0120A0E1 		mov	ip, #-536870912
 217              		tst	r3, #33554432
 218 0150 883092E5 		add	ip, ip, #2080768
 219 0154 0EC2A0E3 		beq	.L10
 220 0158 020413E3 	.LBE24:
 221 015c 7FC98CE2 	.LBE25:
 222 0160 FAFFFF0A 	.LBE20:
 223              		.loc 1 167 0
 224              		mov	r2, #0
 225              		.loc 1 173 0
 226              		mov	r3, #3
 227 0164 0020A0E3 		.loc 1 167 0
 228              		str	r2, [ip, #0]
 229 0168 0330A0E3 	.LBE18:
 230              	.LBE28:
 231 016c 00208CE5 		.loc 1 229 0
 232              		mvn	r1, #0
 233              	.LBB29:
 212:sys_init.cpp  **** {
 213:sys_init.cpp  **** 	uint32_t i = 0;
 214:sys_init.cpp  **** 	volatile uint32_t *vect_addr, *vect_prio;
 215:sys_init.cpp  **** 
 216:sys_init.cpp  **** 	lowInit();                            // setup clocks and processor port pins
 217:sys_init.cpp  **** 
 218:sys_init.cpp  **** 	// set the interrupt controller defaults
 219:sys_init.cpp  **** //   MEMMAP = 0;
ARM GAS  C:\Users\Chris\AppData\Local\Temp/ccGSaaaa.s 			page 9


 220:sys_init.cpp  **** //#if defined(RAM_RUN)
 221:sys_init.cpp  **** 	MEMMAP = MEMMAP_SRAM;                 // map interrupt vectors space into SRAM
 222:sys_init.cpp  **** //#elif defined(ROM_RUN)
 223:sys_init.cpp  **** //	MEMMAP = MEMMAP_FLASH;                // map interrupt vectors space into FLASH
 224:sys_init.cpp  **** //#else
 225:sys_init.cpp  **** //#error RUN_MODE not defined!
 226:sys_init.cpp  **** //#endif
 227:sys_init.cpp  **** 	
 228:sys_init.cpp  **** 	/* initialize VIC */
 229:sys_init.cpp  **** 	VICIntEnClr  = 0xffffffff;
 234              	:
 235 0170 0010E0E3 	.LBB17:
 236              		.loc 1 175 0
 237              		str	r0, [ip, #0]
 238              	.LBE17:
 239 0174 04308CE5 	.LBE30:
 240              		.loc 1 231 0
 241 0178 0200A0E3 		mov	r3, r3, asr #19
 242              	.LBB31:
 243              	.LBB27:
 230:sys_init.cpp  **** 	VICVectAddr  = 0x00000000;
 231:sys_init.cpp  **** 	VICIntSelect = 0x00000000; /* all IRQ */
 244              	1 0
 245 017c DE3343E2 		str	r2, [ip, #424]
 246 0180 C4409FE5 		.loc 1 182 0
 247              		str	r2, [ip, #428]
 248              	.LBE27:
 249              	.LBE31:
 250 0184 00008CE5 		.loc 1 221 0
 251              		str	r0, [ip, #64]
 252              		.loc 1 229 0
 253              		str	r1, [r1, #-4075]
 254 0188 C339A0E1 		.loc 1 230 0
 255              		str	r2, [r1, #-255]
 256              		.loc 1 231 0
 257              		str	r2, [r1, #-4083]
 258 018c A8218CE5 		.loc 1 238 0
 259              		add	r2, r2, #15
 260 0190 AC218CE5 	.L11:
 261              		.loc 1 237 0
 262              		str	r4, [r3, #0]
 263              		.loc 1 238 0
 264 0194 40008CE5 		str	r2, [r3, #256]
 265              		add	r3, r3, #4
 266 0198 EB1F01E5 		.loc 1 234 0
 267              		cmn	r3, #3712
 268 019c FF2001E5 		bne	.L11
 269              	.LBB32:
 270 01a0 F32F01E5 	.LBB33:
 232:sys_init.cpp  **** 	
 233:sys_init.cpp  **** 	/* set all the vector and vector control register to 0 */
 234:sys_init.cpp  **** 	for ( i = 0; i < 32; i++ ) {
 235:sys_init.cpp  **** 		vect_addr = (uint32_t *)(VIC_BASE_ADDR + VECT_ADDR_INDEX + i*4);
 236:sys_init.cpp  **** 		vect_prio = (uint32_t *)(VIC_BASE_ADDR + VECT_PRIO_INDEX + i*4);
 237:sys_init.cpp  **** 		*vect_addr = (uint32_t)sysTimeISR;
 238:sys_init.cpp  **** 		*vect_prio = 0x0000000F;
 271              	ldr	r3, [r1, #-4083]
ARM GAS  C:\Users\Chris\AppData\Local\Temp/ccGSaaaa.s 			page 10


 272 01a4 0F2082E2 		.loc 1 265 0
 273              		mov	ip, #1
 274              		.loc 1 263 0
 275 01a8 004083E5 		mov	r0, #16
 276              		.loc 1 262 0
 277 01ac 002183E5 		bic	r3, r3, #16
 278 01b0 043083E2 		str	r3, [r1, #-4083]
 279              		.loc 1 269 0
 280 01b4 3A0D73E3 		mov	r2, #-536870912
 281 01b8 FAFFFF1A 		.loc 1 263 0
 282              		str	r0, [r1, #-4075]
 283              		.loc 1 264 0
 239:sys_init.cpp  **** 	}
 240:sys_init.cpp  **** 	
 241:sys_init.cpp  **** 	 initSysTime();                        // initialize the system timer
 242:sys_init.cpp  ****     initADC();
 243:sys_init.cpp  **** 
 244:sys_init.cpp  **** 	SCS |= (1UL<<0); // set GPIOM in SCS for fast IO
 245:sys_init.cpp  **** }
 246:sys_init.cpp  **** 
 247:sys_init.cpp  **** //**********************************
 248:sys_init.cpp  **** //* Setup the ADC converter
 249:sys_init.cpp  **** void initADC(void)
 250:sys_init.cpp  **** { 
 251:sys_init.cpp  ****    AD0CR |= /* Power on          */ (1 << 21) | 
 252:sys_init.cpp  ****             /* Selected Channels */ (0xFF << 0);
 253:sys_init.cpp  ****    AD0CR |= (1 <<  16); //burst
 254:sys_init.cpp  **** }
 255:sys_init.cpp  **** 
 256:sys_init.cpp  **** //***************************
 257:sys_init.cpp  **** //* Setup the timers 
 258:sys_init.cpp  **** void initSysTime(void)
 259:sys_init.cpp  **** {
 260:sys_init.cpp  **** 
 261:sys_init.cpp  **** 	/* Setup the interrupt */
 262:sys_init.cpp  **** 	VICIntSelect &= ~(VIC_CHAN_TO_MASK(VIC_CHAN_NUM_Timer0));
 284              	 #-3823]
 285 01bc 0010E0E3 		.loc 1 265 0
 286 01c0 F33F11E5 		str	ip, [r1, #-3567]
 263:sys_init.cpp  **** 	VICIntEnClr  = VIC_CHAN_TO_MASK(VIC_CHAN_NUM_Timer0);
 264:sys_init.cpp  **** 	VICVectAddr4 = (uint32_t)sysTimeISR;
 265:sys_init.cpp  **** 	VICVectPriority4 = 0x01;
 287              	oc 1 266 0
 288 01c4 01C0A0E3 		str	r0, [r1, #-4079]
 289              		.loc 1 269 0
 290 01c8 1000A0E3 		add	r2, r2, #16384
 291              		ldr	r3, [r2, #8]
 292 01cc 1030C3E3 		add	r3, r3, #2288
 293 01d0 F33F01E5 		add	r3, r3, #15
 266:sys_init.cpp  **** 	VICIntEnable = VIC_CHAN_TO_MASK(VIC_CHAN_NUM_Timer0);
 267:sys_init.cpp  **** 
 268:sys_init.cpp  **** 	/* Setup timer 0 */
 269:sys_init.cpp  **** 	T0MR0 = T0TC + SYSTIME_INT_DT - 1;
 294              	, [r2, #24]
 295 01d4 0E22A0E3 	.LBE33:
 296              	.LBE32:
 297 01d8 EB0F01E5 	.LBB35:
ARM GAS  C:\Users\Chris\AppData\Local\Temp/ccGSaaaa.s 			page 11


 298              	.LBB36:
 299 01dc EF4E01E5 		.loc 1 252 0
 300              		mov	r0, #-536870912
 301 01e0 EFCD01E5 	.LBE36:
 302              	.LBE35:
 303 01e4 EF0F01E5 	.LBB38:
 304              	.LBB34:
 305 01e8 012982E2 		.loc 1 270 0
 306 01ec 083092E5 		str	ip, [r2, #20]
 307 01f0 8F3E83E2 		.loc 1 271 0
 308 01f4 0F3083E2 		str	ip, [r2, #0]
 309 01f8 183082E5 		.loc 1 272 0
 310              		str	ip, [r2, #4]
 311              	.LBE34:
 312              	.LBE38:
 313              	.LBB39:
 314              	.LBB37:
 315 01fc 0E02A0E3 		.loc 1 252 0
 316              		add	r0, r0, #212992
 317              		ldr	r3, [r0, #0]
 318              		orr	r3, r3, #2097152
 319              		orr	r3, r3, #255
 270:sys_init.cpp  **** 	T0MCR = TxMCR_MR0I;        // interrupt on cmp-match0
 320              	253 0
 321 0200 14C082E5 		ldr	r2, [r0, #0]
 271:sys_init.cpp  **** 	T0IR  = TxIR_MR0_Interrupt; // clear match0 interrupt
 322              	rr	r2, r2, #65536
 323 0204 00C082E5 		str	r2, [r0, #0]
 272:sys_init.cpp  **** 	T0TCR = TxTCR_Counter_Enable;         // enable timer 0
 324              	BE37:
 325 0208 04C082E5 	.LBE39:
 326              		.loc 1 244 0
 327              		add	r1, r1, #-536870911
 328              		add	r1, r1, #2080768
 329              		ldr	r3, [r1, #416]
 330              		orr	r3, r3, ip
 331 020c 0D0980E2 		str	r3, [r1, #416]
 332 0210 003090E5 	.LBE40:
 333 0214 023683E3 		.loc 1 245 0
 334 0218 FF3083E3 		ldmfd	sp!, {r4}
 335 021c 003080E5 		bx	lr
 336              	.L9:
 337 0220 002090E5 	.L17:
 338 0224 012882E3 		b	.L17
 339 0228 002080E5 	.L20:
 340              		.align	2
 341              	.L19:
 342              		.word	_Z10sysTimeISRv
 343 022c 1E1281E2 	.LFE6:
 344 0230 7F1981E2 		.cantunwind
 345 0234 A03191E5 		.fnend
 346 0238 0C3083E1 		.size	_Z7sysInitv, .-_Z7sysInitv
 347 023c A03181E5 		.align	2
 348              		.global	_Z7initADCv
 349              		.type	_Z7initADCv, %function
 350 0240 1000BDE8 	_Z7initADCv:
 351 0244 1EFF2FE1 		.fnstart
ARM GAS  C:\Users\Chris\AppData\Local\Temp/ccGSaaaa.s 			page 12


 352              	.LFB7:
 353              		.loc 1 249 0
 354 0248 FEFFFFEA 		@ Function supports interworking.
 355              		@ args = 0, pretend = 0, frame = 0
 356              		@ frame_needed = 0, uses_anonymous_args = 0
 357              		@ link register save eliminated.
 358 024c 00000000 		.loc 1 252 0
 359              		mov	r1, #-536870912
 360              		add	r1, r1, #212992
 361              		ldr	r2, [r1, #0]
 362              		mov	r3, #2097152
 363              		add	r3, r3, #255
 364              		orr	r2, r2, r3
 365              		str	r2, [r1, #0]
 366              		.loc 1 253 0
 367              		ldr	r3, [r1, #0]
 368              		orr	r3, r3, #65536
 369              		str	r3, [r1, #0]
 370              		.loc 1 254 0
 371              		bx	lr
 372              	.LFE7:
 373              		.cantunwind
 374              		.fnend
 375 0250 0E12A0E3 		.size	_Z7initADCv, .-_Z7initADCv
 376 0254 0D1981E2 		.align	2
 377 0258 002091E5 		.global	_Z10sysTimeISRv
 378 025c 0236A0E3 		.type	_Z10sysTimeISRv, %function
 379 0260 FF3083E2 	_Z10sysTimeISRv:
 380 0264 032082E1 		.fnstart
 381 0268 002081E5 	.LFB2:
 382              		.loc 1 45 0
 383 026c 003091E5 		@ Function supports interworking.
 384 0270 013883E3 		@ Naked Function: prologue and epilogue provided by programmer.
 385 0274 003081E5 		@ args = 0, pretend = 0, frame = 0
 386              		@ frame_needed = 0, uses_anonymous_args = 0
 387 0278 1EFF2FE1 		.loc 1 48 0
 388              	@ 48 "sys_init.cpp" 1
 389              		 sub   lr, lr,#4
 390              	 stmfd sp!,{r0-r12,lr}
 391              	 mrs   r1, spsr
 392              	 stmfd sp!,{r1}
 393              	@ 0 "" 2
 394              		.loc 1 49 0
 395              		mov	r1, #-536870912
 396              		add	r1, r1, #16384
 397              		ldr	r3, [r1, #24]
 398              		add	r3, r3, #2288
 399              		add	r3, r3, #15
 400              		.loc 1 50 0
 401              		mov	r2, #1
 402              		.loc 1 53 0
 403              		ldr	r8, .L26
 404              		.loc 1 49 0
 405 027c 04E04EE2 		str	r3, [r1, #24]
 406 0280 FF5F2DE9 		.loc 1 50 0
 407 0284 00104FE1 		str	r2, [r1, #0]
 408 0288 02002DE9 		.loc 1 53 0
ARM GAS  C:\Users\Chris\AppData\Local\Temp/ccGSaaaa.s 			page 13


 409              		mov	r3, #-536870912
 410              		.loc 1 60 0
 411 028c 0E12A0E3 		ldrb	r2, [r8, #36]	@ zero_extendqisi2
 412 0290 011981E2 		.loc 1 53 0
 413 0294 183091E5 		add	r3, r3, #212992
 414 0298 8F3E83E2 		ldr	r7, [r3, #16]
 415 029c 0F3083E2 		ldr	r5, [r8, #4]
 416              		.loc 1 54 0
 417 02a0 0120A0E3 		ldr	r6, [r3, #20]
 418              		ldr	r0, [r8, #12]
 419 02a4 C0809FE5 		.loc 1 55 0
 420              		ldr	ip, [r3, #24]
 421 02a8 183081E5 		ldr	r1, [r8, #20]
 422              		.loc 1 56 0
 423 02ac 002081E5 		ldr	r4, [r3, #28]
 424              		.loc 1 60 0
 425 02b0 0E32A0E3 		add	r2, r2, #1
 426              		.loc 1 56 0
 427 02b4 2420D8E5 		ldr	r3, [r8, #28]
 428              		.loc 1 60 0
 429 02b8 0D3983E2 		and	r2, r2, #255
 430 02bc 107093E5 		.loc 1 53 0
 431 02c0 045098E5 		add	r5, r5, r7, lsr #6
 432              		.loc 1 54 0
 433 02c4 146093E5 		add	r0, r0, r6, lsr #6
 434 02c8 0C0098E5 		.loc 1 55 0
 435              		add	ip, r1, ip, lsr #6
 436 02cc 18C093E5 		.loc 1 56 0
 437 02d0 141098E5 		add	r4, r3, r4, lsr #6
 438              		.loc 1 61 0
 439 02d4 1C4093E5 		cmp	r2, #7
 440              		.loc 1 53 0
 441 02d8 012082E2 		str	r5, [r8, #4]
 442              		.loc 1 54 0
 443 02dc 1C3098E5 		str	r0, [r8, #12]
 444              		.loc 1 55 0
 445 02e0 FF2002E2 		str	ip, [r8, #20]
 446              		.loc 1 56 0
 447 02e4 275385E0 		str	r4, [r8, #28]
 448              		.loc 1 60 0
 449 02e8 260380E0 		strb	r2, [r8, #36]
 450              		.loc 1 61 0
 451 02ec 2CC381E0 		bls	.L24
 452              	.LBB43:
 453 02f0 244383E0 	.LBB44:
 454              		.loc 1 89 0
 455 02f4 070052E3 		ldr	r2, [r8, #32]
 456              		.loc 1 85 0
 457 02f8 045088E5 		mov	r3, #0
 458              		.loc 1 79 0
 459 02fc 0C0088E5 		mov	r1, r5, lsr #3
 460              		.loc 1 80 0
 461 0300 14C088E5 		mov	r0, r0, lsr #3
 462              		.loc 1 81 0
 463 0304 1C4088E5 		mov	ip, ip, lsr #3
 464              		.loc 1 82 0
 465 0308 2420C8E5 		mov	r4, r4, lsr #3
ARM GAS  C:\Users\Chris\AppData\Local\Temp/ccGSaaaa.s 			page 14


 466              		.loc 1 89 0
 467 030c 1000009A 		add	r2, r2, #1
 468              	.LBE44:
 469              	.LBE43:
 470              		.loc 1 64 0
 471 0310 202098E5 		strb	r3, [r8, #36]
 472              	.LBB46:
 473 0314 0030A0E3 	.LBB45:
 474              		.loc 1 79 0
 475 0318 A511A0E1 		str	r1, [r8, #0]
 476              		.loc 1 80 0
 477 031c A001A0E1 		str	r0, [r8, #8]
 478              		.loc 1 81 0
 479 0320 ACC1A0E1 		str	ip, [r8, #16]
 480              		.loc 1 82 0
 481 0324 A441A0E1 		str	r4, [r8, #24]
 482              		.loc 1 89 0
 483 0328 012082E2 		str	r2, [r8, #32]
 484              		.loc 1 85 0
 485              		str	r3, [r8, #4]
 486              		.loc 1 86 0
 487 032c 2430C8E5 		str	r3, [r8, #12]
 488              		.loc 1 87 0
 489              		str	r3, [r8, #20]
 490              		.loc 1 88 0
 491 0330 001088E5 		str	r3, [r8, #28]
 492              	.L24:
 493 0334 080088E5 	.LBE45:
 494              	.LBE46:
 495 0338 10C088E5 		.loc 1 68 0
 496              		mov	r2, #0
 497 033c 184088E5 		mvn	r3, #0
 498              		str	r2, [r3, #-255]
 499 0340 202088E5 		.loc 1 69 0
 500              	@ 69 "sys_init.cpp" 1
 501 0344 043088E5 		 ldmfd sp!,{r1}
 502              	 msr   spsr_c,r1
 503 0348 0C3088E5 	 ldmfd sp!,{r0-r12,pc}^
 504              	@ 0 "" 2
 505 034c 143088E5 		.loc 1 70 0
 506              	.L27:
 507 0350 1C3088E5 		.align	2
 508              	.L26:
 509              		.word	.LANCHOR0
 510              	.LFE2:
 511              		.cantunwind
 512 0354 0020A0E3 		.fnend
 513 0358 0030E0E3 		.size	_Z10sysTimeISRv, .-_Z10sysTimeISRv
 514 035c FF2003E5 		.global	adcSamplesNorth
 515              		.global	adcSamplesSouth
 516              		.global	adcSamplesEast
 517 0360 0200BDE8 		.global	adcSamplesWest
 518 0364 01F061E1 		.global	currentNorth
 519 0368 FF9FFDE8 		.global	currentSouth
 520              		.global	currentEast
 521              		.global	currentWest
 522              		.global	millisCntr
ARM GAS  C:\Users\Chris\AppData\Local\Temp/ccGSaaaa.s 			page 15


 523              		.global	millis
 524              		.bss
 525 036c 00000000 		.align	2
 526              		.set	.LANCHOR0,. + 0
 527              		.type	currentNorth, %object
 528              		.size	currentNorth, 4
 529              	currentNorth:
 530              		.space	4
 531              		.type	adcSamplesNorth, %object
 532              		.size	adcSamplesNorth, 4
 533              	adcSamplesNorth:
 534              		.space	4
 535              		.type	currentSouth, %object
 536              		.size	currentSouth, 4
 537              	currentSouth:
 538              		.space	4
 539              		.type	adcSamplesSouth, %object
 540              		.size	adcSamplesSouth, 4
 541              	adcSamplesSouth:
 542              		.space	4
 543              		.type	currentEast, %object
 544              		.size	currentEast, 4
 545              	currentEast:
 546 0000 00000000 		.space	4
 547              		.type	adcSamplesEast, %object
 548              		.size	adcSamplesEast, 4
 549              	adcSamplesEast:
 550 0004 00000000 		.space	4
 551              		.type	currentWest, %object
 552              		.size	currentWest, 4
 553              	currentWest:
 554 0008 00000000 		.space	4
 555              		.type	adcSamplesWest, %object
 556              		.size	adcSamplesWest, 4
 557              	adcSamplesWest:
 558 000c 00000000 		.space	4
 559              		.type	millis, %object
 560              		.size	millis, 4
 561              	millis:
 562 0010 00000000 		.space	4
 563              		.type	millisCntr, %object
 564              		.size	millisCntr, 1
 565              	millisCntr:
 566 0014 00000000 		.space	1
 567              		.section	.debug_frame,"",%progbits
 568              	.Lframe0:
 569              		.4byte	.LECIE0-.LSCIE0
 570 0018 00000000 	.LSCIE0:
 571              		.4byte	0xffffffff
 572              		.byte	0x1
 573              		.ascii	"\000"
 574 001c 00000000 		.uleb128 0x1
 575              		.sleb128 -4
 576              		.byte	0xe
 577              		.byte	0xc
 578 0020 00000000 		.uleb128 0xd
 579              		.uleb128 0x0
ARM GAS  C:\Users\Chris\AppData\Local\Temp/ccGSaaaa.s 			page 16


 580              		.align	2
 581              	.LECIE0:
 582 0024 00       	.LSFDE0:
 583 0025 000000   		.4byte	.LEFDE0-.LASFDE0
 584              	.LASFDE0:
 585 0000 0C000000 		.4byte	.Lframe0
 586              		.4byte	.LFB3
 587 0004 FFFFFFFF 		.4byte	.LFE3-.LFB3
 588 0008 01       		.byte	0x4
 589 0009 00       		.4byte	.LCFI0-.LFB3
 590 000a 01       		.byte	0xe
 591 000b 7C       		.uleb128 0x8
 592 000c 0E       		.byte	0x85
 593 000d 0C       		.uleb128 0x1
 594 000e 0D       		.byte	0x84
 595 000f 00       		.uleb128 0x2
 596              		.align	2
 597              	.LEFDE0:
 598              	.LSFDE2:
 599 0010 14000000 		.4byte	.LEFDE2-.LASFDE2
 600              	.LASFDE2:
 601 0014 00000000 		.4byte	.Lframe0
 602 0018 00000000 		.4byte	.LFB6
 603 001c 64000000 		.4byte	.LFE6-.LFB6
 604 0020 48       		.byte	0x4
 605              		.4byte	.LCFI1-.LFB6
 606 0021 0E       		.byte	0xe
 607 0022 08       		.uleb128 0x4
 608 0023 85       		.byte	0x84
 609 0024 01       		.uleb128 0x1
 610 0025 84       		.align	2
 611 0026 02       	.LEFDE2:
 612 0027 00       	.LSFDE4:
 613              		.4byte	.LEFDE4-.LASFDE4
 614              	.LASFDE4:
 615 0028 14000000 		.4byte	.Lframe0
 616              		.4byte	.LFB7
 617 002c 00000000 		.4byte	.LFE7-.LFB7
 618 0030 64000000 		.align	2
 619 0034 EC010000 	.LEFDE4:
 620 0038 54       	.LSFDE6:
 621              		.4byte	.LEFDE6-.LASFDE6
 622 0039 0E       	.LASFDE6:
 623 003a 04       		.4byte	.Lframe0
 624 003b 84       		.4byte	.LFB2
 625 003c 01       		.4byte	.LFE2-.LFB2
 626 003d 000000   		.align	2
 627              	.LEFDE6:
 628              		.text
 629 0040 0C000000 	.Letext0: