ARM GAS  C:\Users\Chris\AppData\Local\Temp/ccYJbaaa.s 			page 1


   1              		.cpu arm7tdmi
   2              		.fpu softvfp
   3              		.eabi_attribute 20, 1
   4              		.eabi_attribute 21, 1
   5              		.eabi_attribute 23, 3
   6              		.eabi_attribute 24, 1
   7              		.eabi_attribute 25, 1
   8              		.eabi_attribute 26, 1
   9              		.eabi_attribute 30, 2
  10              		.eabi_attribute 18, 4
  11              		.file	"Syscalls.c"
  18 0000 ED000000 		.text
  18      0200BB00 
  18      00000201 
  18      FB0E0D00 
  18      01010101 
  19              	.Ltext0:
  20              		.align	2
  21              		.global	_init
  22              		.type	_init, %function
  23              	_init:
  24              	.LFB2:
  25              		.file 1 "Syscalls.c"
   1:Syscalls.c    **** /* System Calls Remapping */
   2:Syscalls.c    **** 
   3:Syscalls.c    **** #include <sys/stat.h>
   4:Syscalls.c    **** #include <sys/time.h>
   5:Syscalls.c    **** #include <sys/times.h>
   6:Syscalls.c    **** #include <string.h>
   7:Syscalls.c    **** #include <errno.h>
   8:Syscalls.c    **** 
   9:Syscalls.c    **** #define putchar sendchar
  10:Syscalls.c    **** #define getchar getkey
  11:Syscalls.c    **** 
  12:Syscalls.c    **** //extern int putchar (int ch);
  13:Syscalls.c    **** //extern int getchar (void);
  14:Syscalls.c    **** 
  15:Syscalls.c    **** extern void _init(void) {
  26              	supports interworking.
  27              		@ args = 0, pretend = 0, frame = 0
  28              		@ frame_needed = 0, uses_anonymous_args = 0
  29              		@ link register save eliminated.
  30              		.loc 1 16 0
  16:Syscalls.c    **** }
  31              	r
  32 0000 1EFF2FE1 	.LFE2:
  33              		.size	_init, .-_init
  34              		.align	2
  35              		.global	_read
  36              		.type	_read, %function
  37              	_read:
ARM GAS  C:\Users\Chris\AppData\Local\Temp/ccYJbaaa.s 			page 2


  38              	.LFB3:
  39              		.loc 1 18 0
  17:Syscalls.c    **** 
  18:Syscalls.c    **** int _read (int fd, char * ptr, int len) {
  40              	on supports interworking.
  41              		@ args = 0, pretend = 0, frame = 0
  42              		@ frame_needed = 0, uses_anonymous_args = 0
  43              		@ link register save eliminated.
  44              	.LVL0:
  45              		.loc 1 32 0
  19:Syscalls.c    ****     #if 0
  20:Syscalls.c    ****   char c;
  21:Syscalls.c    ****   int  i;
  22:Syscalls.c    **** 
  23:Syscalls.c    ****   for (i = 0; i < len; i++) {
  24:Syscalls.c    ****     c = 0; //getchar();
  25:Syscalls.c    ****     if (c == 0x0D) break;
  26:Syscalls.c    ****     *ptr++ = c;
  27:Syscalls.c    ****     //putchar(c);
  28:Syscalls.c    ****   }
  29:Syscalls.c    ****   return (len - i);
  30:Syscalls.c    ****   #endif
  31:Syscalls.c    ****   return 0;
  32:Syscalls.c    **** }
  46              	0, #0
  47 0004 0000A0E3 	.LVL1:
  48              		bx	lr
  49 0008 1EFF2FE1 	.LFE3:
  50              		.size	_read, .-_read
  51              		.align	2
  52              		.global	_lseek
  53              		.type	_lseek, %function
  54              	_lseek:
  55              	.LFB4:
  56              		.loc 1 34 0
  33:Syscalls.c    **** 
  34:Syscalls.c    **** int _lseek (int fd, int ptr, int dir) {
  57              	 supports interworking.
  58              		@ args = 0, pretend = 0, frame = 0
  59              		@ frame_needed = 0, uses_anonymous_args = 0
  60              		@ link register save eliminated.
  61              	.LVL2:
  62              		.loc 1 36 0
  35:Syscalls.c    ****   return (0);
  36:Syscalls.c    **** }
  63              	0, #0
  64 000c 0000A0E3 	.LVL3:
  65              		bx	lr
  66 0010 1EFF2FE1 	.LFE4:
  67              		.size	_lseek, .-_lseek
  68              		.align	2
  69              		.global	_write
  70              		.type	_write, %function
  71              	_write:
  72              	.LFB5:
  73              		.loc 1 38 0
  37:Syscalls.c    **** 
ARM GAS  C:\Users\Chris\AppData\Local\Temp/ccYJbaaa.s 			page 3


  38:Syscalls.c    **** int _write (int fd, char * ptr, int len) {
  74              	 supports interworking.
  75              		@ args = 0, pretend = 0, frame = 0
  76              		@ frame_needed = 0, uses_anonymous_args = 0
  77              		@ link register save eliminated.
  78              	.LVL4:
  79              		.loc 1 46 0
  39:Syscalls.c    ****    #if 0
  40:Syscalls.c    ****   int i;
  41:Syscalls.c    **** 
  42:Syscalls.c    ****   for (i = 0; i < len; i++) ;//putchar (*ptr++);
  43:Syscalls.c    ****   return (i);
  44:Syscalls.c    ****   #endif
  45:Syscalls.c    ****   return 0;
  46:Syscalls.c    **** }
  80              	0, #0
  81 0014 0000A0E3 	.LVL5:
  82              		bx	lr
  83 0018 1EFF2FE1 	.LFE5:
  84              		.size	_write, .-_write
  85              		.align	2
  86              		.global	_open
  87              		.type	_open, %function
  88              	_open:
  89              	.LFB6:
  90              		.loc 1 48 0
  47:Syscalls.c    **** 
  48:Syscalls.c    **** int _open (const char * path, int flags, ...) {
  91              	 supports interworking.
  92              		@ args = 4, pretend = 12, frame = 0
  93              		@ frame_needed = 0, uses_anonymous_args = 1
  94              		@ link register save eliminated.
  95              	.LVL6:
  96              		stmfd	sp!, {r1, r2, r3}
  97 001c 0E002DE9 	.LCFI0:
  98              		.loc 1 50 0
  49:Syscalls.c    ****   return (-1);
  50:Syscalls.c    **** }
  99              	 #0
 100 0020 0000E0E3 	.LVL7:
 101              		add	sp, sp, #12
 102 0024 0CD08DE2 		bx	lr
 103 0028 1EFF2FE1 	.LFE6:
 104              		.size	_open, .-_open
 105              		.align	2
 106              		.global	_close
 107              		.type	_close, %function
 108              	_close:
 109              	.LFB7:
 110              		.loc 1 52 0
  51:Syscalls.c    **** 
  52:Syscalls.c    **** int _close (int fd) {
 111              	supports interworking.
 112              		@ args = 0, pretend = 0, frame = 0
 113              		@ frame_needed = 0, uses_anonymous_args = 0
 114              		@ link register save eliminated.
 115              	.LVL8:
ARM GAS  C:\Users\Chris\AppData\Local\Temp/ccYJbaaa.s 			page 4


 116              		.loc 1 54 0
  53:Syscalls.c    ****   return (-1);
  54:Syscalls.c    **** }
 117              	0, #0
 118 002c 0000E0E3 	.LVL9:
 119              		bx	lr
 120 0030 1EFF2FE1 	.LFE7:
 121              		.size	_close, .-_close
 122              		.align	2
 123              		.global	_kill
 124              		.type	_kill, %function
 125              	_kill:
 126              	.LFB8:
 127              		.loc 1 56 0
  55:Syscalls.c    **** 
  56:Syscalls.c    **** int _kill (int n, int m) {
 128              	 supports interworking.
 129              		@ args = 0, pretend = 0, frame = 0
 130              		@ frame_needed = 0, uses_anonymous_args = 0
 131              		@ link register save eliminated.
 132              	.LVL10:
 133              		.loc 1 61 0
  57:Syscalls.c    ****     #if 0
  58:Syscalls.c    ****   errno = EINVAL;
  59:Syscalls.c    ****   #endif
  60:Syscalls.c    ****   return(-1);
  61:Syscalls.c    **** }
 134              	0, #0
 135 0034 0000E0E3 	.LVL11:
 136              		bx	lr
 137 0038 1EFF2FE1 	.LFE8:
 138              		.size	_kill, .-_kill
 139              		.align	2
 140              		.weak	_getpid
 141              		.type	_getpid, %function
 142              	_getpid:
 143              	.LFB9:
 144              		.loc 1 63 0
  62:Syscalls.c    **** 
  63:Syscalls.c    **** int __attribute__((weak)) _getpid (int n __attribute__ ((unused))) {
 145              	 supports interworking.
 146              		@ args = 0, pretend = 0, frame = 0
 147              		@ frame_needed = 0, uses_anonymous_args = 0
 148              		@ link register save eliminated.
 149              	.LVL12:
 150              		.loc 1 65 0
  64:Syscalls.c    ****   return (1);
  65:Syscalls.c    **** }
 151              	0, #1
 152 003c 0100A0E3 	.LVL13:
 153              		bx	lr
 154 0040 1EFF2FE1 	.LFE9:
 155              		.size	_getpid, .-_getpid
 156              		.align	2
 157              		.global	_sbrk
 158              		.type	_sbrk, %function
 159              	_sbrk:
ARM GAS  C:\Users\Chris\AppData\Local\Temp/ccYJbaaa.s 			page 5


 160              	.LFB10:
 161              		.loc 1 70 0
  66:Syscalls.c    **** 
  67:Syscalls.c    **** extern int  __cs3_heap_start;
  68:Syscalls.c    **** extern int  __cs3_heap_end;
  69:Syscalls.c    **** 
  70:Syscalls.c    **** caddr_t _sbrk (int incr) {
 162              	 supports interworking.
 163              		@ args = 0, pretend = 0, frame = 0
 164              		@ frame_needed = 0, uses_anonymous_args = 0
 165              		@ link register save eliminated.
 166              	.LVL14:
 167              		.loc 1 92 0
  71:Syscalls.c    ****     #if 0
  72:Syscalls.c    ****   static char * heap;
  73:Syscalls.c    ****          char * prev_heap;
  74:Syscalls.c    **** 
  75:Syscalls.c    ****   if (heap == NULL) {
  76:Syscalls.c    ****     heap = (char *)&__cs3_heap_start;
  77:Syscalls.c    ****   }
  78:Syscalls.c    ****   
  79:Syscalls.c    ****   prev_heap = heap;
  80:Syscalls.c    **** 
  81:Syscalls.c    ****   if ((heap + incr) > (char *)&__cs3_heap_end) {
  82:Syscalls.c    ****     errno = ENOMEM;
  83:Syscalls.c    ****     return (caddr_t) -1;
  84:Syscalls.c    ****   }
  85:Syscalls.c    ****   
  86:Syscalls.c    ****   heap += incr;
  87:Syscalls.c    **** 
  88:Syscalls.c    ****   return (caddr_t) prev_heap;
  89:Syscalls.c    ****   #endif
  90:Syscalls.c    ****   return 0;
  91:Syscalls.c    **** 
  92:Syscalls.c    **** }
 168              	0, #0
 169 0044 0000A0E3 	.LVL15:
 170              		bx	lr
 171 0048 1EFF2FE1 	.LFE10:
 172              		.size	_sbrk, .-_sbrk
 173              		.align	2
 174              		.weak	_fstat
 175              		.type	_fstat, %function
 176              	_fstat:
 177              	.LFB11:
 178              		.loc 1 94 0
  93:Syscalls.c    **** 
  94:Syscalls.c    **** int __attribute__((weak)) _fstat (int fd, struct stat * st) {
 179              	 supports interworking.
 180              		@ args = 0, pretend = 0, frame = 0
 181              		@ frame_needed = 0, uses_anonymous_args = 0
 182              		@ link register save eliminated.
 183              	.LVL16:
 184              		.loc 1 100 0
  95:Syscalls.c    ****     #if 0
  96:Syscalls.c    ****   memset (st, 0, sizeof (* st));
  97:Syscalls.c    ****   st->st_mode = S_IFCHR;
ARM GAS  C:\Users\Chris\AppData\Local\Temp/ccYJbaaa.s 			page 6


  98:Syscalls.c    ****   #endif
  99:Syscalls.c    ****   return (0);
 100:Syscalls.c    **** }
 185              	0, #0
 186 004c 0000A0E3 	.LVL17:
 187              		bx	lr
 188 0050 1EFF2FE1 	.LFE11:
 189              		.size	_fstat, .-_fstat
 190              		.align	2
 191              		.weak	_link
 192              		.type	_link, %function
 193              	_link:
 194              	.LFB12:
 195              		.loc 1 102 0
 101:Syscalls.c    **** 
 102:Syscalls.c    **** int __attribute__((weak))_link (void) {
 196              	 supports interworking.
 197              		@ args = 0, pretend = 0, frame = 0
 198              		@ frame_needed = 0, uses_anonymous_args = 0
 199              		@ link register save eliminated.
 200              		.loc 1 107 0
 103:Syscalls.c    ****     #if 0
 104:Syscalls.c    ****   errno = ENOSYS;
 105:Syscalls.c    ****   #endif
 106:Syscalls.c    ****   return (-1);
 107:Syscalls.c    **** }
 201              	r0, #0
 202 0054 0000E0E3 		bx	lr
 203 0058 1EFF2FE1 	.LFE12:
 204              		.size	_link, .-_link
 205              		.align	2
 206              		.global	_unlink
 207              		.type	_unlink, %function
 208              	_unlink:
 209              	.LFB13:
 210              		.loc 1 109 0
 108:Syscalls.c    **** 
 109:Syscalls.c    **** int _unlink (const char *path) {
 211              	n supports interworking.
 212              		@ args = 0, pretend = 0, frame = 0
 213              		@ frame_needed = 0, uses_anonymous_args = 0
 214              		@ link register save eliminated.
 215              	.LVL18:
 216              		.loc 1 114 0
 110:Syscalls.c    ****     #if 0
 111:Syscalls.c    ****   errno = ENOENT;
 112:Syscalls.c    ****   #endif
 113:Syscalls.c    ****   return (-1);
 114:Syscalls.c    **** }
 217              	0, #0
 218 005c 0000E0E3 	.LVL19:
 219              		bx	lr
 220 0060 1EFF2FE1 	.LFE13:
 221              		.size	_unlink, .-_unlink
 222              		.align	2
 223              		.global	isatty
 224              		.type	isatty, %function
ARM GAS  C:\Users\Chris\AppData\Local\Temp/ccYJbaaa.s 			page 7


 225              	isatty:
 226              	.LFB14:
 227              		.loc 1 116 0
 115:Syscalls.c    **** 
 116:Syscalls.c    **** int isatty (int fd) {
 228              	 supports interworking.
 229              		@ args = 0, pretend = 0, frame = 0
 230              		@ frame_needed = 0, uses_anonymous_args = 0
 231              		@ link register save eliminated.
 232              	.LVL20:
 233              		.loc 1 118 0
 117:Syscalls.c    ****   return (1);
 118:Syscalls.c    **** }
 234              	0, #1
 235 0064 0100A0E3 	.LVL21:
 236              		bx	lr
 237 0068 1EFF2FE1 	.LFE14:
 238              		.size	isatty, .-isatty
 239              		.section	.debug_frame,"",%progbits
 240              	.Lframe0:
 241              		.4byte	.LECIE0-.LSCIE0
 242 0000 0C000000 	.LSCIE0:
 243              		.4byte	0xffffffff
 244 0004 FFFFFFFF 		.byte	0x1
 245 0008 01       		.ascii	"\000"
 246 0009 00       		.uleb128 0x1
 247 000a 01       		.sleb128 -4
 248 000b 7C       		.byte	0xe
 249 000c 0E       		.byte	0xc
 250 000d 0C       		.uleb128 0xd
 251 000e 0D       		.uleb128 0x0
 252 000f 00       		.align	2
 253              	.LECIE0:
 254              	.LSFDE0:
 255              		.4byte	.LEFDE0-.LASFDE0
 256 0010 0C000000 	.LASFDE0:
 257              		.4byte	.Lframe0
 258 0014 00000000 		.4byte	.LFB2
 259 0018 00000000 		.4byte	.LFE2-.LFB2
 260 001c 04000000 		.align	2
 261              	.LEFDE0:
 262              	.LSFDE2:
 263              		.4byte	.LEFDE2-.LASFDE2
 264 0020 0C000000 	.LASFDE2:
 265              		.4byte	.Lframe0
 266 0024 00000000 		.4byte	.LFB3
 267 0028 04000000 		.4byte	.LFE3-.LFB3
 268 002c 08000000 		.align	2
 269              	.LEFDE2:
 270              	.LSFDE4:
 271              		.4byte	.LEFDE4-.LASFDE4
 272 0030 0C000000 	.LASFDE4:
 273              		.4byte	.Lframe0
 274 0034 00000000 		.4byte	.LFB4
 275 0038 0C000000 		.4byte	.LFE4-.LFB4
 276 003c 08000000 		.align	2
 277              	.LEFDE4:
ARM GAS  C:\Users\Chris\AppData\Local\Temp/ccYJbaaa.s 			page 8


 278              	.LSFDE6:
 279              		.4byte	.LEFDE6-.LASFDE6
 280 0040 0C000000 	.LASFDE6:
 281              		.4byte	.Lframe0
 282 0044 00000000 		.4byte	.LFB5
 283 0048 14000000 		.4byte	.LFE5-.LFB5
 284 004c 08000000 		.align	2
 285              	.LEFDE6:
 286              	.LSFDE8:
 287              		.4byte	.LEFDE8-.LASFDE8
 288 0050 18000000 	.LASFDE8:
 289              		.4byte	.Lframe0
 290 0054 00000000 		.4byte	.LFB6
 291 0058 1C000000 		.4byte	.LFE6-.LFB6
 292 005c 10000000 		.byte	0x4
 293 0060 44       		.4byte	.LCFI0-.LFB6
 294              		.byte	0xe
 295 0061 0E       		.uleb128 0xc
 296 0062 0C       		.byte	0x83
 297 0063 83       		.uleb128 0x1
 298 0064 01       		.byte	0x82
 299 0065 82       		.uleb128 0x2
 300 0066 02       		.byte	0x81
 301 0067 81       		.uleb128 0x3
 302 0068 03       		.align	2
 303 0069 000000   	.LEFDE8:
 304              	.LSFDE10:
 305              		.4byte	.LEFDE10-.LASFDE10
 306 006c 0C000000 	.LASFDE10:
 307              		.4byte	.Lframe0
 308 0070 00000000 		.4byte	.LFB7
 309 0074 2C000000 		.4byte	.LFE7-.LFB7
 310 0078 08000000 		.align	2
 311              	.LEFDE10:
 312              	.LSFDE12:
 313              		.4byte	.LEFDE12-.LASFDE12
 314 007c 0C000000 	.LASFDE12:
 315              		.4byte	.Lframe0
 316 0080 00000000 		.4byte	.LFB8
 317 0084 34000000 		.4byte	.LFE8-.LFB8
 318 0088 08000000 		.align	2
 319              	.LEFDE12:
 320              	.LSFDE14:
 321              		.4byte	.LEFDE14-.LASFDE14
 322 008c 0C000000 	.LASFDE14:
 323              		.4byte	.Lframe0
 324 0090 00000000 		.4byte	.LFB9
 325 0094 3C000000 		.4byte	.LFE9-.LFB9
 326 0098 08000000 		.align	2
 327              	.LEFDE14:
 328              	.LSFDE16:
 329              		.4byte	.LEFDE16-.LASFDE16
 330 009c 0C000000 	.LASFDE16:
 331              		.4byte	.Lframe0
 332 00a0 00000000 		.4byte	.LFB10
 333 00a4 44000000 		.4byte	.LFE10-.LFB10
 334 00a8 08000000 		.align	2
ARM GAS  C:\Users\Chris\AppData\Local\Temp/ccYJbaaa.s 			page 9


 335              	.LEFDE16:
 336              	.LSFDE18:
 337              		.4byte	.LEFDE18-.LASFDE18
 338 00ac 0C000000 	.LASFDE18:
 339              		.4byte	.Lframe0
 340 00b0 00000000 		.4byte	.LFB11
 341 00b4 4C000000 		.4byte	.LFE11-.LFB11
 342 00b8 08000000 		.align	2
 343              	.LEFDE18:
 344              	.LSFDE20:
 345              		.4byte	.LEFDE20-.LASFDE20
 346 00bc 0C000000 	.LASFDE20:
 347              		.4byte	.Lframe0
 348 00c0 00000000 		.4byte	.LFB12
 349 00c4 54000000 		.4byte	.LFE12-.LFB12
 350 00c8 08000000 		.align	2
 351              	.LEFDE20:
 352              	.LSFDE22:
 353              		.4byte	.LEFDE22-.LASFDE22
 354 00cc 0C000000 	.LASFDE22:
 355              		.4byte	.Lframe0
 356 00d0 00000000 		.4byte	.LFB13
 357 00d4 5C000000 		.4byte	.LFE13-.LFB13
 358 00d8 08000000 		.align	2
 359              	.LEFDE22:
 360              	.LSFDE24:
 361              		.4byte	.LEFDE24-.LASFDE24
 362 00dc 0C000000 	.LASFDE24:
 363              		.4byte	.Lframe0
 364 00e0 00000000 		.4byte	.LFB14
 365 00e4 64000000 		.4byte	.LFE14-.LFB14
 366 00e8 08000000 		.align	2
 367              	.LEFDE24:
 368              		.text
 369              	.Letext0: