ARM GAS  C:\Users\Chris\AppData\Local\Temp/cc6jaaaa.s 			page 1


   1              		.cpu arm7tdmi
   2              		.fpu softvfp
   3              		.eabi_attribute 20, 1
   4              		.eabi_attribute 21, 1
   5              		.eabi_attribute 23, 3
   6              		.eabi_attribute 24, 1
   7              		.eabi_attribute 25, 1
   8              		.eabi_attribute 26, 1
   9              		.eabi_attribute 30, 2
  10              		.eabi_attribute 18, 4
  11              		.file	"uart.cpp"
  18 0000 16010000 		.text
  18      02002900 
  18      00000201 
  18      FB0E0D00 
  18      01010101 
  19              	.Ltext0:
  20              		.align	2
  21              		.global	_Z12UART0Handlerv
  22              		.type	_Z12UART0Handlerv, %function
  23              	_Z12UART0Handlerv:
  24              		.fnstart
  25              	.LFB2:
  26              		.file 1 "uart.cpp"
   1:uart.cpp      **** /*****************************************************************************
   2:uart.cpp      ****  *   uart.c:  UART API file for NXP LPC23xx/24xx Family Microprocessors
   3:uart.cpp      ****  *
   4:uart.cpp      ****  *   Copyright(C) 2006, NXP Semiconductor
   5:uart.cpp      ****  *   All rights reserved.
   6:uart.cpp      ****  *
   7:uart.cpp      ****  *   History
   8:uart.cpp      ****  *   2006.07.12  ver 1.00    Prelimnary version, first Release
   9:uart.cpp      ****  *
  10:uart.cpp      **** ******************************************************************************/
  11:uart.cpp      **** 
  12:uart.cpp      **** // modified by Martin Thomas
  13:uart.cpp      **** // - const BYTE in send
  14:uart.cpp      **** 
  15:uart.cpp      **** #include "LPC23xx.h"                        /* LPC23xx/24xx definitions */
  16:uart.cpp      **** #include "type.h"
  17:uart.cpp      **** #include "irq.h"
  18:uart.cpp      **** #include "uart.h"
  19:uart.cpp      **** #include "sys_config.h"
  20:uart.cpp      **** 
  21:uart.cpp      **** 
  22:uart.cpp      **** #define BUFSIZE UART_BUFSIZE
  23:uart.cpp      **** 
  24:uart.cpp      **** volatile DWORD UART0Status, UART1Status;
  25:uart.cpp      **** volatile BYTE UART0TxEmpty = 1, UART1TxEmpty = 1;
  26:uart.cpp      **** volatile BYTE UART0Buffer[BUFSIZE], UART1Buffer[BUFSIZE];
  27:uart.cpp      **** volatile DWORD UART0Count = 0, UART1Count = 0;
ARM GAS  C:\Users\Chris\AppData\Local\Temp/cc6jaaaa.s 			page 2


  28:uart.cpp      **** 
  29:uart.cpp      **** 
  30:uart.cpp      **** /*****************************************************************************
  31:uart.cpp      **** ** Function name:		UART0Handler
  32:uart.cpp      **** **
  33:uart.cpp      **** ** Descriptions:		UART0 interrupt handler
  34:uart.cpp      **** **
  35:uart.cpp      **** ** parameters:			None
  36:uart.cpp      **** ** Returned value:		None
  37:uart.cpp      **** ** 
  38:uart.cpp      **** *****************************************************************************/
  39:uart.cpp      **** void UART0Handler (void) __irq 
  27              	upports interworking.
  28              		@ args = 0, pretend = 0, frame = 8
  29              		@ frame_needed = 0, uses_anonymous_args = 0
  30              		@ link register save eliminated.
  31              		str	r4, [sp, #-4]!
  32 0000 04402DE5 	.LCFI0:
  33              		sub	sp, sp, #12
  34 0004 0CD04DE2 	.LCFI1:
  35              	.LBB2:
  36              		.loc 1 42 0
  40:uart.cpp      **** {
  41:uart.cpp      ****     BYTE IIRValue, LSRValue;
  42:uart.cpp      ****     volatile BYTE Dummy = Dummy;
  37              	[sp, #7]	@ zero_extendqisi2
  38 0008 0730DDE5 	.LVL0:
  39              		and	r3, r3, #255
  40 000c FF3003E2 	.LVL1:
  41              		strb	r3, [sp, #7]
  42 0010 0730CDE5 		.loc 1 45 0
  43:uart.cpp      **** 
  44:uart.cpp      ****     IENABLE;				/* handles nested interrupt */	
  45:uart.cpp      ****     IIRValue = U0IIR;
  43              	0, #-536870912
  44 0014 0E02A0E3 		add	r0, r0, #49152
  45 0018 030980E2 		ldr	r3, [r0, #8]
  46 001c 083090E5 	.LVL2:
  47              		.loc 1 47 0
  46:uart.cpp      ****     
  47:uart.cpp      ****     IIRValue >>= 1;			/* skip pending bit in IIR */
  48              	r3, r3, lsr #1
  49 0020 A330A0E1 		.loc 1 48 0
  48:uart.cpp      ****     IIRValue &= 0x07;			/* check bit 1~3, interrupt identification */
  50              	nd	r1, r3, #7
  51 0024 071003E2 	.LVL3:
  52              		.loc 1 49 0
  49:uart.cpp      ****     if ( IIRValue == IIR_RLS )		/* Receive Line Status */
  53              	p	r1, #3
  54 0028 030051E3 		beq	.L11
  55 002c 1900000A 		.loc 1 76 0
  50:uart.cpp      ****     {
  51:uart.cpp      **** 		LSRValue = U0LSR;
  52:uart.cpp      **** 		/* Receive Line Status */
  53:uart.cpp      **** 		if ( LSRValue & (LSR_OE|LSR_PE|LSR_FE|LSR_RXFE|LSR_BI) )
  54:uart.cpp      **** 		{
  55:uart.cpp      **** 	    	/* There are errors or break interrupt */
ARM GAS  C:\Users\Chris\AppData\Local\Temp/cc6jaaaa.s 			page 3


  56:uart.cpp      **** 	    	/* Read LSR will clear the interrupt */
  57:uart.cpp      **** 	    	UART0Status = LSRValue;
  58:uart.cpp      **** 	    	Dummy = U0RBR;		/* Dummy read on RX to clear 
  59:uart.cpp      **** 								interrupt, then bail out */
  60:uart.cpp      **** 	    	IDISABLE;
  61:uart.cpp      **** 	    	VICVectAddr = 0;		/* Acknowledge Interrupt */
  62:uart.cpp      **** 	    	return;
  63:uart.cpp      **** 		}
  64:uart.cpp      **** 		if ( LSRValue & LSR_RDR )	/* Receive Data Ready */			
  65:uart.cpp      **** 		{
  66:uart.cpp      **** 	    	/* If no error on RLS, normal ready, save into the data buffer. */
  67:uart.cpp      **** 	    	/* Note: read RBR will clear the interrupt */
  68:uart.cpp      **** 	    	UART0Buffer[UART0Count] = U0RBR;
  69:uart.cpp      **** 	    	UART0Count++;
  70:uart.cpp      **** 	    	if ( UART0Count == BUFSIZE )
  71:uart.cpp      **** 	    	{
  72:uart.cpp      **** 				UART0Count = 0;		/* buffer overflow */
  73:uart.cpp      **** 	    	}	
  74:uart.cpp      **** 		}
  75:uart.cpp      ****     }
  76:uart.cpp      ****     else if ( IIRValue == IIR_RDA )	/* Receive Data Available */
  56              	p	r1, #2
  57 0030 020051E3 		beq	.L12
  58 0034 0900000A 		.loc 1 86 0
  77:uart.cpp      ****     {
  78:uart.cpp      **** 		/* Receive Data Available */
  79:uart.cpp      **** 		UART0Buffer[UART0Count] = U0RBR;
  80:uart.cpp      **** 		UART0Count++;
  81:uart.cpp      **** 		if ( UART0Count == BUFSIZE )
  82:uart.cpp      **** 		{
  83:uart.cpp      **** 	    	UART0Count = 0;		/* buffer overflow */
  84:uart.cpp      **** 		}
  85:uart.cpp      ****     }
  86:uart.cpp      ****     else if ( IIRValue == IIR_CTI )	/* Character timeout indicator */
  59              	p	r1, #6
  60 0038 060051E3 		beq	.L13
  61 003c 3100000A 		.loc 1 91 0
  87:uart.cpp      ****     {
  88:uart.cpp      **** 		/* Character Time-out indicator */
  89:uart.cpp      **** 		UART0Status |= 0x100;		/* Bit 9 as the CTI error */
  90:uart.cpp      ****     }
  91:uart.cpp      ****     else if ( IIRValue == IIR_THRE )	/* THRE, transmit holding register empty */
  62              	p	r1, #1
  63 0040 010051E3 		beq	.L14
  64 0044 3400000A 	.LVL4:
  65              	.L5:
  66              		.loc 1 107 0
  92:uart.cpp      ****     {
  93:uart.cpp      **** 		/* THRE interrupt */
  94:uart.cpp      **** 		LSRValue = U0LSR;		/* Check status in the LSR to see if
  95:uart.cpp      **** 								valid data in U0THR or not */
  96:uart.cpp      **** 		if ( LSRValue & LSR_THRE )
  97:uart.cpp      **** 		{
  98:uart.cpp      **** 	    	UART0TxEmpty = 1;
  99:uart.cpp      **** 		}
 100:uart.cpp      **** 		else
 101:uart.cpp      **** 		{
ARM GAS  C:\Users\Chris\AppData\Local\Temp/cc6jaaaa.s 			page 4


 102:uart.cpp      **** 	    	UART0TxEmpty = 0;
 103:uart.cpp      **** 		}
 104:uart.cpp      ****     }
 105:uart.cpp      ****     
 106:uart.cpp      ****     IDISABLE;
 107:uart.cpp      ****     VICVectAddr = 0;		/* Acknowledge Interrupt */
  67              	r2, #0
  68 0048 0020A0E3 		mvn	r3, #0
  69 004c 0030E0E3 		str	r2, [r3, #-255]
  70 0050 FF2003E5 	.L9:
  71              	.LBE2:
  72              		.loc 1 108 0
 108:uart.cpp      **** }
  73              	p, sp, #12
  74 0054 0CD08DE2 		ldmfd	sp!, {r4}
  75 0058 1000BDE8 		bx	lr
  76 005c 1EFF2FE1 	.LVL5:
  77              	.L12:
  78              	.LBB3:
  79              		.loc 1 79 0
  80              		ldr	ip, .L16
  81 0060 D0C09FE5 		ldr	r1, [ip, #4]
  82 0064 04109CE5 	.LVL6:
  83              		ldr	r2, [r0, #0]
  84 0068 002090E5 		add	r1, ip, r1
  85 006c 01108CE0 		and	r2, r2, #255
  86 0070 FF2002E2 		strb	r2, [r1, #8]
  87 0074 0820C1E5 		.loc 1 80 0
  88              		ldr	r3, [ip, #4]
  89 0078 04309CE5 		add	r3, r3, #1
  90 007c 013083E2 		str	r3, [ip, #4]
  91 0080 04308CE5 		.loc 1 81 0
  92              		ldr	r2, [ip, #4]
  93 0084 04209CE5 		cmp	r2, #64
  94 0088 400052E3 		.loc 1 83 0
  95              		moveq	r3, #0
  96 008c 0030A003 		streq	r3, [ip, #4]
  97 0090 04308C05 		b	.L5
  98 0094 EBFFFFEA 	.LVL7:
  99              	.L11:
 100              		.loc 1 51 0
 101              		ldr	r3, [r0, #20]
 102 0098 143090E5 		.loc 1 53 0
 103              		ands	r4, r3, #158
 104 009c 9E4013E2 		.loc 1 51 0
 105              		and	r1, r3, #255
 106 00a0 FF1003E2 	.LVL8:
 107              		.loc 1 53 0
 108              		bne	.L15
 109 00a4 0E00001A 		.loc 1 64 0
 110              		tst	r3, #1
 111 00a8 010013E3 		beq	.L5
 112 00ac E5FFFF0A 		.loc 1 68 0
 113              		ldr	ip, .L16
 114 00b0 80C09FE5 		ldr	r1, [ip, #4]
 115 00b4 04109CE5 	.LVL9:
 116              		ldr	r2, [r0, #0]
ARM GAS  C:\Users\Chris\AppData\Local\Temp/cc6jaaaa.s 			page 5


 117 00b8 002090E5 		add	r1, ip, r1
 118 00bc 01108CE0 		and	r2, r2, #255
 119 00c0 FF2002E2 		strb	r2, [r1, #8]
 120 00c4 0820C1E5 		.loc 1 69 0
 121              		ldr	r3, [ip, #4]
 122 00c8 04309CE5 		add	r3, r3, #1
 123 00cc 013083E2 		str	r3, [ip, #4]
 124 00d0 04308CE5 		.loc 1 70 0
 125              		ldr	r2, [ip, #4]
 126 00d4 04209CE5 		cmp	r2, #64
 127 00d8 400052E3 		.loc 1 72 0
 128              		streq	r4, [ip, #4]
 129 00dc 04408C05 		b	.L5
 130 00e0 D8FFFFEA 	.LVL10:
 131              	.L15:
 132              		.loc 1 57 0
 133              		ldr	r2, .L16
 134 00e4 4C209FE5 		str	r1, [r2, #0]
 135 00e8 001082E5 		.loc 1 58 0
 136              		ldr	r3, [r0, #0]
 137 00ec 003090E5 		and	r3, r3, #255
 138 00f0 FF3003E2 	.LVL11:
 139              		strb	r3, [sp, #7]
 140 00f4 0730CDE5 		.loc 1 61 0
 141              		mov	r2, #0
 142 00f8 0020A0E3 		mvn	r3, #0
 143 00fc 0030E0E3 	.LVL12:
 144              		str	r2, [r3, #-255]
 145 0100 FF2003E5 		b	.L9
 146 0104 D2FFFFEA 	.LVL13:
 147              	.L13:
 148              		.loc 1 89 0
 149              		ldr	r2, .L16
 150 0108 28209FE5 		ldr	r3, [r2, #0]
 151 010c 003092E5 		orr	r3, r3, #256
 152 0110 013C83E3 		str	r3, [r2, #0]
 153 0114 003082E5 		b	.L5
 154 0118 CAFFFFEA 	.L14:
 155              		.loc 1 94 0
 156              		ldr	r3, [r0, #20]
 157 011c 143090E5 		.loc 1 96 0
 158              		ands	r2, r3, #32
 159 0120 202013E2 		.loc 1 98 0
 160              		ldrne	r3, .L16+4
 161 0124 10309F15 		.loc 1 102 0
 162              		ldreq	r3, .L16+4
 163 0128 0C309F05 		.loc 1 98 0
 164              		strneb	r1, [r3, #0]
 165 012c 0010C315 		.loc 1 102 0
 166              		streqb	r2, [r3, #0]
 167 0130 0020C305 		b	.L5
 168 0134 C3FFFFEA 	.L17:
 169              		.align	2
 170              	.L16:
 171              		.word	.LANCHOR0
 172 0138 00000000 		.word	.LANCHOR1
 173 013c 00000000 	.LBE3:
ARM GAS  C:\Users\Chris\AppData\Local\Temp/cc6jaaaa.s 			page 6


 174              	.LFE2:
 175              		.cantunwind
 176              		.fnend
 177              		.size	_Z12UART0Handlerv, .-_Z12UART0Handlerv
 178              		.align	2
 179              		.global	_Z12UART1Handlerv
 180              		.type	_Z12UART1Handlerv, %function
 181              	_Z12UART1Handlerv:
 182              		.fnstart
 183              	.LFB3:
 184              		.loc 1 119 0
 109:uart.cpp      **** 
 110:uart.cpp      **** /*****************************************************************************
 111:uart.cpp      **** ** Function name:		UART1Handler
 112:uart.cpp      **** **
 113:uart.cpp      **** ** Descriptions:		UART1 interrupt handler
 114:uart.cpp      **** **
 115:uart.cpp      **** ** parameters:			None
 116:uart.cpp      **** ** Returned value:		None
 117:uart.cpp      **** ** 
 118:uart.cpp      **** *****************************************************************************/
 119:uart.cpp      **** void UART1Handler (void) __irq 
 185              	= 0
 186              		@ link register save eliminated.
 187              	.LBB4:
 188              		.loc 1 125 0
 189              		mov	r2, #-536870912
 190              		add	r2, r2, #65536
 120:uart.cpp      **** {
 121:uart.cpp      ****     BYTE IIRValue, LSRValue;
 122:uart.cpp      ****     BYTE Dummy = Dummy;
 123:uart.cpp      **** 
 124:uart.cpp      ****     IENABLE;				/* handles nested interrupt */	
 125:uart.cpp      ****     IIRValue = U1IIR;
 191              	3, [r2, #8]
 192 0140 0E22A0E3 		.loc 1 127 0
 193 0144 012882E2 		mov	r3, r3, lsr #1
 194 0148 083092E5 		.loc 1 128 0
 126:uart.cpp      ****     
 127:uart.cpp      ****     IIRValue >>= 1;			/* skip pending bit in IIR */
 195              		r1, r3, #7
 196 014c A330A0E1 	.LVL14:
 128:uart.cpp      ****     IIRValue &= 0x07;			/* check bit 1~3, interrupt identification */
 197              	loc 1 129 0
 198 0150 071003E2 		cmp	r1, #3
 199              		beq	.L27
 129:uart.cpp      ****     if ( IIRValue == IIR_RLS )		/* Receive Line Status */
 200              	oc 1 156 0
 201 0154 030051E3 		cmp	r1, #2
 202 0158 1A00000A 		beq	.L28
 130:uart.cpp      ****     {
 131:uart.cpp      **** 		LSRValue = U1LSR;
 132:uart.cpp      **** 		/* Receive Line Status */
 133:uart.cpp      **** 		if ( LSRValue & (LSR_OE|LSR_PE|LSR_FE|LSR_RXFE|LSR_BI) )
 134:uart.cpp      **** 		{
 135:uart.cpp      **** 	    	/* There are errors or break interrupt */
 136:uart.cpp      **** 	    	/* Read LSR will clear the interrupt */
ARM GAS  C:\Users\Chris\AppData\Local\Temp/cc6jaaaa.s 			page 7


 137:uart.cpp      **** 	    	UART1Status = LSRValue;
 138:uart.cpp      **** 	    	Dummy = U1RBR;		/* Dummy read on RX to clear 
 139:uart.cpp      **** 								interrupt, then bail out */
 140:uart.cpp      **** 	    	IDISABLE;
 141:uart.cpp      **** 	    	VICVectAddr = 0;		/* Acknowledge Interrupt */
 142:uart.cpp      **** 	    	return;
 143:uart.cpp      **** 		}
 144:uart.cpp      **** 		if ( LSRValue & LSR_RDR )	/* Receive Data Ready */			
 145:uart.cpp      **** 		{
 146:uart.cpp      **** 	    	/* If no error on RLS, normal ready, save into the data buffer. */
 147:uart.cpp      **** 	    	/* Note: read RBR will clear the interrupt */
 148:uart.cpp      **** 	    	UART1Buffer[UART1Count] = U1RBR;
 149:uart.cpp      **** 	    	UART1Count++;
 150:uart.cpp      **** 	    	if ( UART1Count == BUFSIZE )
 151:uart.cpp      **** 	    	{
 152:uart.cpp      **** 				UART1Count = 0;		/* buffer overflow */
 153:uart.cpp      **** 	    	}	
 154:uart.cpp      **** 		}
 155:uart.cpp      ****     }
 156:uart.cpp      ****     else if ( IIRValue == IIR_RDA )	/* Receive Data Available */
 203              	oc 1 166 0
 204 015c 020051E3 		cmp	r1, #6
 205 0160 0700000A 		beq	.L29
 157:uart.cpp      ****     {
 158:uart.cpp      **** 		/* Receive Data Available */
 159:uart.cpp      **** 		UART1Buffer[UART1Count] = U1RBR;
 160:uart.cpp      **** 		UART1Count++;
 161:uart.cpp      **** 		if ( UART1Count == BUFSIZE )
 162:uart.cpp      **** 		{
 163:uart.cpp      **** 	    	UART1Count = 0;		/* buffer overflow */
 164:uart.cpp      **** 		}
 165:uart.cpp      ****     }
 166:uart.cpp      ****     else if ( IIRValue == IIR_CTI )	/* Character timeout indicator */
 206              	oc 1 171 0
 207 0164 060051E3 		cmp	r1, #1
 208 0168 3000000A 		beq	.L30
 167:uart.cpp      ****     {
 168:uart.cpp      **** 		/* Character Time-out indicator */
 169:uart.cpp      **** 		UART1Status |= 0x100;		/* Bit 9 as the CTI error */
 170:uart.cpp      ****     }
 171:uart.cpp      ****     else if ( IIRValue == IIR_THRE )	/* THRE, transmit holding register empty */
 209              	L15:
 210 016c 010051E3 	.L22:
 211 0170 3600000A 		.loc 1 187 0
 212              		mov	r2, #0
 213              		mvn	r3, #0
 172:uart.cpp      ****     {
 173:uart.cpp      **** 		/* THRE interrupt */
 174:uart.cpp      **** 		LSRValue = U1LSR;		/* Check status in the LSR to see if
 175:uart.cpp      **** 								valid data in U0THR or not */
 176:uart.cpp      **** 		if ( LSRValue & LSR_THRE )
 177:uart.cpp      **** 		{
 178:uart.cpp      **** 	    	UART1TxEmpty = 1;
 179:uart.cpp      **** 		}
 180:uart.cpp      **** 		else
 181:uart.cpp      **** 		{
 182:uart.cpp      **** 	    	UART1TxEmpty = 0;
ARM GAS  C:\Users\Chris\AppData\Local\Temp/cc6jaaaa.s 			page 8


 183:uart.cpp      **** 		}
 184:uart.cpp      ****     }
 185:uart.cpp      ****     
 186:uart.cpp      ****     IDISABLE;
 187:uart.cpp      ****     VICVectAddr = 0;		/* Acknowledge Interrupt */
 214              	r2, [r3, #-255]
 215 0174 0020A0E3 		bx	lr
 216 0178 0030E0E3 	.LVL16:
 217 017c FF2003E5 	.L28:
 218 0180 1EFF2FE1 		.loc 1 159 0
 219              		ldr	r0, .L32
 220              		ldr	r1, [r0, #76]
 221              	.LVL17:
 222 0184 EC009FE5 		ldr	r2, [r2, #0]
 223 0188 4C1090E5 		add	r1, r0, r1
 224              		and	r2, r2, #255
 225 018c 002092E5 		strb	r2, [r1, #80]
 226 0190 011080E0 		.loc 1 160 0
 227 0194 FF2002E2 		ldr	r3, [r0, #76]
 228 0198 5020C1E5 		add	r3, r3, #1
 229              		str	r3, [r0, #76]
 230 019c 4C3090E5 		.loc 1 161 0
 231 01a0 013083E2 		ldr	r2, [r0, #76]
 232 01a4 4C3080E5 		cmp	r2, #64
 233              		.loc 1 163 0
 234 01a8 4C2090E5 		moveq	r3, #0
 235 01ac 400052E3 		streq	r3, [r0, #76]
 236              		.loc 1 187 0
 237 01b0 0030A003 		mov	r2, #0
 238 01b4 4C308005 		mvn	r3, #0
 239              		str	r2, [r3, #-255]
 240 01b8 0020A0E3 		bx	lr
 241 01bc 0030E0E3 	.LVL18:
 242 01c0 FF2003E5 	.L27:
 243 01c4 1EFF2FE1 		.loc 1 131 0
 244              		ldr	r3, [r2, #20]
 245              		.loc 1 133 0
 246              		ands	ip, r3, #158
 247 01c8 143092E5 		.loc 1 131 0
 248              		and	r1, r3, #255
 249 01cc 9EC013E2 	.LVL19:
 250              		.loc 1 133 0
 251 01d0 FF1003E2 		bne	.L31
 252              		.loc 1 144 0
 253              		tst	r3, #1
 254 01d4 0E00001A 		beq	.L22
 255              		.loc 1 148 0
 256 01d8 010013E3 		ldr	r0, .L32
 257 01dc E4FFFF0A 		ldr	r1, [r0, #76]
 258              	.LVL20:
 259 01e0 90009FE5 		ldr	r2, [r2, #0]
 260 01e4 4C1090E5 		add	r1, r0, r1
 261              		and	r2, r2, #255
 262 01e8 002092E5 		strb	r2, [r1, #80]
 263 01ec 011080E0 		.loc 1 149 0
 264 01f0 FF2002E2 		ldr	r3, [r0, #76]
 265 01f4 5020C1E5 		add	r3, r3, #1
ARM GAS  C:\Users\Chris\AppData\Local\Temp/cc6jaaaa.s 			page 9


 266              		str	r3, [r0, #76]
 267 01f8 4C3090E5 		.loc 1 150 0
 268 01fc 013083E2 		ldr	r2, [r0, #76]
 269 0200 4C3080E5 		cmp	r2, #64
 270              		.loc 1 152 0
 271 0204 4C2090E5 		streq	ip, [r0, #76]
 272 0208 400052E3 		b	.L22
 273              	.LVL21:
 274 020c 4CC08005 	.L31:
 275 0210 D7FFFFEA 		.loc 1 137 0
 276              		ldr	r3, .L32
 277              		str	r1, [r3, #72]
 278              		.loc 1 141 0
 279 0214 5C309FE5 		mvn	r3, #0
 280 0218 481083E5 		.loc 1 138 0
 281              		ldr	r2, [r2, #0]
 282 021c 0030E0E3 		.loc 1 141 0
 283              		mov	r2, #0
 284 0220 002092E5 		str	r2, [r3, #-255]
 285              		bx	lr
 286 0224 0020A0E3 	.LVL22:
 287 0228 FF2003E5 	.L29:
 288 022c 1EFF2FE1 		.loc 1 169 0
 289              		ldr	r2, .L32
 290              		ldr	r3, [r2, #72]
 291              		orr	r3, r3, #256
 292 0230 40209FE5 		str	r3, [r2, #72]
 293 0234 483092E5 		.loc 1 187 0
 294 0238 013C83E3 		mov	r2, #0
 295 023c 483082E5 		mvn	r3, #0
 296              		str	r2, [r3, #-255]
 297 0240 0020A0E3 		bx	lr
 298 0244 0030E0E3 	.L30:
 299 0248 FF2003E5 		.loc 1 174 0
 300 024c 1EFF2FE1 		ldr	r3, [r2, #20]
 301              		.loc 1 176 0
 302              		ands	r2, r3, #32
 303 0250 143092E5 		.loc 1 178 0
 304              		ldrne	r3, .L32+4
 305 0254 202013E2 		.loc 1 182 0
 306              		ldreq	r3, .L32+4
 307 0258 1C309F15 		.loc 1 178 0
 308              		strneb	r1, [r3, #1]
 309 025c 18309F05 		.loc 1 182 0
 310              		streqb	r2, [r3, #1]
 311 0260 0110C315 		.loc 1 187 0
 312              		mov	r2, #0
 313 0264 0120C305 		mvn	r3, #0
 314              		str	r2, [r3, #-255]
 315 0268 0020A0E3 		bx	lr
 316 026c 0030E0E3 	.L33:
 317 0270 FF2003E5 		.align	2
 318 0274 1EFF2FE1 	.L32:
 319              		.word	.LANCHOR0
 320              		.word	.LANCHOR1
 321              	.LBE4:
 322 0278 00000000 	.LFE3:
ARM GAS  C:\Users\Chris\AppData\Local\Temp/cc6jaaaa.s 			page 10


 323 027c 00000000 		.cantunwind
 324              		.fnend
 325              		.size	_Z12UART1Handlerv, .-_Z12UART1Handlerv
 326              		.align	2
 327              		.global	_Z8UARTSendmPKcm
 328              		.type	_Z8UARTSendmPKcm, %function
 329              	_Z8UARTSendmPKcm:
 330              		.fnstart
 331              	.LFB5:
 332              		.loc 1 261 0
 333              		@ Function supports interworking.
 334              		@ args = 0, pretend = 0, frame = 0
 188:uart.cpp      **** }
 189:uart.cpp      **** 
 190:uart.cpp      **** /*****************************************************************************
 191:uart.cpp      **** ** Function name:		UARTInit
 192:uart.cpp      **** **
 193:uart.cpp      **** ** Descriptions:		Initialize UART0 port, setup pin select,
 194:uart.cpp      **** **						clock, parity, stop bits, FIFO, etc.
 195:uart.cpp      **** **
 196:uart.cpp      **** ** parameters:			portNum(0 or 1) and UART baudrate
 197:uart.cpp      **** ** Returned value:		true or false, return false only if the 
 198:uart.cpp      **** **						interrupt handler can't be installed to the 
 199:uart.cpp      **** **						VIC table
 200:uart.cpp      **** ** 
 201:uart.cpp      **** *****************************************************************************/
 202:uart.cpp      **** DWORD UARTInit( unsigned int PortNum, unsigned long baudrate )
 203:uart.cpp      **** {
 204:uart.cpp      ****     DWORD Fdiv;
 205:uart.cpp      **** 
 206:uart.cpp      **** 	if ( PortNum == 0 )
 207:uart.cpp      **** 	{
 208:uart.cpp      **** 		PINSEL0 = 0x00000050;       /* RxD0 and TxD0 */
 209:uart.cpp      **** 
 210:uart.cpp      ****     	U0LCR = 0x83;		/* 8 bits, no Parity, 1 Stop bit */
 211:uart.cpp      ****     	Fdiv = ( PCLK / 16 ) / baudrate ;	/*baud rate */
 212:uart.cpp      ****     	U0DLM = Fdiv / 256;							
 213:uart.cpp      ****     	U0DLL = Fdiv % 256;
 214:uart.cpp      **** 		U0LCR = 0x03;		/* DLAB = 0 */
 215:uart.cpp      ****     	U0FCR = 0x07;		/* Enable and reset TX and RX FIFO. */
 216:uart.cpp      **** 
 217:uart.cpp      ****     	if ( install_irq( UART0_INT, (void *)UART0Handler, HIGHEST_PRIORITY ) == FALSE )
 218:uart.cpp      ****     	{
 219:uart.cpp      **** 			return (FALSE);
 220:uart.cpp      ****     	}
 221:uart.cpp      ****    
 222:uart.cpp      ****     	U0IER = IER_RBR | IER_THRE | IER_RLS;	/* Enable UART0 interrupt */
 223:uart.cpp      ****     	return (TRUE);
 224:uart.cpp      **** 	}
 225:uart.cpp      **** 	else if ( PortNum == 1 )
 226:uart.cpp      **** 	{
 227:uart.cpp      **** #if EA_BOARD_LPC24XX
 228:uart.cpp      **** 		PINSEL7 |= 0x0000000F;	/* P3.16 TXD1, P3.17 RXD1 */
 229:uart.cpp      **** #else							/* Default is Keil MCB2300 board */							
 230:uart.cpp      **** 		PINSEL0 |= 0x40000000;	/* Enable TxD1 P0.15 */
 231:uart.cpp      **** 		PINSEL1 |= 0x00000001;	/* Enable RxD1 P0.16 */
 232:uart.cpp      **** #endif
ARM GAS  C:\Users\Chris\AppData\Local\Temp/cc6jaaaa.s 			page 11


 233:uart.cpp      ****     	U1LCR = 0x83;		/* 8 bits, no Parity, 1 Stop bit */
 234:uart.cpp      ****     	Fdiv = ( PCLK / 16 ) / baudrate ;	/*baud rate */
 235:uart.cpp      ****     	U1DLM = Fdiv / 256;							
 236:uart.cpp      ****     	U1DLL = Fdiv % 256;
 237:uart.cpp      **** 		U1LCR = 0x03;		/* DLAB = 0 */
 238:uart.cpp      ****     	U1FCR = 0x07;		/* Enable and reset TX and RX FIFO. */
 239:uart.cpp      **** 
 240:uart.cpp      ****     	if ( install_irq( UART1_INT, (void *)UART1Handler, HIGHEST_PRIORITY ) == FALSE )
 241:uart.cpp      ****     	{
 242:uart.cpp      **** 			return (FALSE);
 243:uart.cpp      ****     	}
 244:uart.cpp      ****    
 245:uart.cpp      ****     	U1IER = IER_RBR | IER_THRE | IER_RLS;	/* Enable UART0 interrupt */
 246:uart.cpp      ****     	return (TRUE);
 247:uart.cpp      **** 	}
 248:uart.cpp      **** 	return( FALSE ); 
 249:uart.cpp      **** }
 250:uart.cpp      **** 
 251:uart.cpp      **** /*****************************************************************************
 252:uart.cpp      **** ** Function name:		UARTSend
 253:uart.cpp      **** **
 254:uart.cpp      **** ** Descriptions:		Send a block of data to the UART 0 port based
 255:uart.cpp      **** **						on the data length
 256:uart.cpp      **** **
 257:uart.cpp      **** ** parameters:			portNum, buffer pointer, and data length
 258:uart.cpp      **** ** Returned value:		None
 259:uart.cpp      **** ** 
 260:uart.cpp      **** *****************************************************************************/
 261:uart.cpp      **** void UARTSend( DWORD portNum, const char *BufferPtr, DWORD Length )
 335              	261 0
 336              		stmfd	sp!, {r4, r5, r6}
 337              	.LCFI2:
 338              		.loc 1 261 0
 339              		mov	r4, r1
 340              		mov	r1, r2
 262:uart.cpp      **** {
 263:uart.cpp      **** 	if ( portNum == 0 )
 341              	:
 342 0280 000050E3 		.loc 1 263 0
 343              		beq	.L35
 344 0284 70002DE9 	.LVL25:
 345              		.loc 1 277 0
 346              		cmp	r2, #0
 347 0288 0140A0E1 		beq	.L40
 348 028c 0210A0E1 	.LVL26:
 349              		ldr	ip, .L47
 350              		.loc 1 265 0
 351 0290 1200000A 		mov	r0, #0
 352              	.LVL27:
 264:uart.cpp      **** 	{
 265:uart.cpp      ****     	while ( Length != 0 )
 266:uart.cpp      ****     	{
 267:uart.cpp      **** 			/* THRE status, contain valid data */
 268:uart.cpp      **** 			while ( !(UART0TxEmpty & 0x01) );	
 269:uart.cpp      **** 			U0THR = *BufferPtr;
 270:uart.cpp      **** 			UART0TxEmpty = 0;	/* not empty in the THR until it shifts out */
 271:uart.cpp      **** 			BufferPtr++;
ARM GAS  C:\Users\Chris\AppData\Local\Temp/cc6jaaaa.s 			page 12


 272:uart.cpp      **** 			Length--;
 273:uart.cpp      **** 		}
 274:uart.cpp      ****     }
 275:uart.cpp      **** 	else
 276:uart.cpp      **** 	{
 277:uart.cpp      **** 		while ( Length != 0 )
 353              	0
 354 0294 000052E3 		mov	r2, #-536870912
 355 0298 0E00000A 	.LVL28:
 356              		add	r2, r2, #65536
 357 029c 80C09FE5 		.loc 1 280 0
 358              		mov	r6, ip
 359 02a0 0000A0E3 		.loc 1 282 0
 360              		mov	r5, r0
 278:uart.cpp      ****     	{
 279:uart.cpp      **** 			/* THRE status, contain valid data */
 280:uart.cpp      **** 			while ( !(UART1TxEmpty & 0x01) );	
 281:uart.cpp      **** 			U1THR = *BufferPtr;
 361              	loc 1 280 0
 362 02a4 0E22A0E3 		ldrb	r3, [ip, #1]	@ zero_extendqisi2
 363              		tst	r3, #1
 364 02a8 012882E2 		beq	.L46
 365              		.loc 1 281 0
 366 02ac 0C60A0E1 		ldrb	r3, [r4, r0]	@ zero_extendqisi2
 282:uart.cpp      **** 			UART1TxEmpty = 0;	/* not empty in the THR until it shifts out */
 367              	1 282 0
 368 02b0 0050A0E1 		add	r0, r0, #1
 369              		.loc 1 277 0
 370              		cmp	r1, r0
 371 02b4 0130DCE5 		.loc 1 281 0
 372 02b8 010013E3 		str	r3, [r2, #0]
 373 02bc FCFFFF0A 		.loc 1 282 0
 374              		strb	r5, [r6, #1]
 375 02c0 0030D4E7 		.loc 1 277 0
 376              		bne	.L46
 377 02c4 010080E2 	.LVL29:
 378              	.L40:
 379 02c8 000051E1 		.loc 1 288 0
 380              		ldmfd	sp!, {r4, r5, r6}
 381 02cc 003082E5 		bx	lr
 382              	.L35:
 383 02d0 0150C6E5 		.loc 1 265 0
 384              		cmp	r2, #0
 385 02d4 F6FFFF1A 		beq	.L40
 386              	.LVL30:
 387              		ldr	ip, .L47
 283:uart.cpp      **** 			BufferPtr++;
 284:uart.cpp      **** 			Length--;
 285:uart.cpp      ****     	}
 286:uart.cpp      **** 	}
 287:uart.cpp      ****     return;
 288:uart.cpp      **** }
 388              	, #-536870912
 389 02d8 7000BDE8 	.LVL31:
 390 02dc 1EFF2FE1 		add	r2, r2, #49152
 391              		.loc 1 268 0
 392              		mov	r6, ip
ARM GAS  C:\Users\Chris\AppData\Local\Temp/cc6jaaaa.s 			page 13


 393 02e0 000052E3 		.loc 1 270 0
 394 02e4 FBFFFF0A 		mov	r5, r0
 395              	.LVL32:
 396 02e8 34C09FE5 	.L45:
 397              		.loc 1 268 0
 398 02ec 0E22A0E3 		ldrb	r3, [ip, #0]	@ zero_extendqisi2
 399              		tst	r3, #1
 400 02f0 032982E2 		beq	.L45
 401              		.loc 1 269 0
 402 02f4 0C60A0E1 		ldrb	r3, [r4, r0]	@ zero_extendqisi2
 403              		.loc 1 270 0
 404 02f8 0050A0E1 		add	r0, r0, #1
 405              		.loc 1 265 0
 406              		cmp	r1, r0
 407              		.loc 1 269 0
 408 02fc 0030DCE5 		str	r3, [r2, #0]
 409 0300 010013E3 		.loc 1 270 0
 410 0304 FCFFFF0A 		strb	r5, [r6, #0]
 411              		.loc 1 265 0
 412 0308 0030D4E7 		bne	.L45
 413              		b	.L40
 414 030c 010080E2 	.L48:
 415              		.align	2
 416 0310 000051E1 	.L47:
 417              		.word	.LANCHOR1
 418 0314 003082E5 	.LFE5:
 419              		.cantunwind
 420 0318 0050C6E5 		.fnend
 421              		.size	_Z8UARTSendmPKcm, .-_Z8UARTSendmPKcm
 422 031c F6FFFF1A 		.global	__aeabi_uidiv
 423 0320 ECFFFFEA 		.align	2
 424              		.global	_Z8UARTInitjm
 425              		.type	_Z8UARTInitjm, %function
 426              	_Z8UARTInitjm:
 427 0324 00000000 		.fnstart
 428              	.LFB4:
 429              		.loc 1 202 0
 430              		@ Function supports interworking.
 431              		@ args = 0, pretend = 0, frame = 0
 432              		@ frame_needed = 1, uses_anonymous_args = 0
 433              	.LVL33:
 434              		.movsp ip
 435              		mov	ip, sp
 436              	.LCFI3:
 437              		stmfd	sp!, {r4, r5, r6, r7, fp, ip, lr, pc}
 438              		.pad #4
 439              		.save {r4, r5, r6, r7, fp, ip, lr}
 440              	.LCFI4:
 441              	.LBB5:
 442              		.loc 1 206 0
 443              		subs	r5, r0, #0
 444              	.LBE5:
 445 0328 0DC0A0E1 		.loc 1 202 0
 446              		.setfp fp, ip, #-4
 447 032c F0D82DE9 		sub	fp, ip, #4
 448              	.LCFI5:
 449              	.LBB6:
ARM GAS  C:\Users\Chris\AppData\Local\Temp/cc6jaaaa.s 			page 14


 450              		.loc 1 206 0
 451              		beq	.L54
 452              	.LVL34:
 453 0330 005050E2 		.loc 1 225 0
 454              		cmp	r5, #1
 455              		beq	.L55
 456              	.L51:
 457 0334 04B04CE2 		.loc 1 246 0
 458              		mov	r0, #0
 459              	.L52:
 460              	.LBE6:
 461 0338 0500000A 		.loc 1 249 0
 462              		sub	sp, fp, #28
 463              		ldmfd	sp, {r4, r5, r6, r7, fp, sp, lr}
 464 033c 010055E3 		bx	lr
 465 0340 1F00000A 	.LVL35:
 466              	.L54:
 467              	.LBB7:
 468 0344 0000A0E3 		.loc 1 208 0
 469              		mov	ip, #-536870912
 470              		.loc 1 211 0
 471              		add	r0, r0, #1114112
 472 0348 1CD04BE2 		.loc 1 210 0
 473 034c F0689DE8 		add	r4, ip, #49152
 474 0350 1EFF2FE1 		.loc 1 208 0
 475              		mov	r3, #80
 476              		add	ip, ip, #180224
 477              		.loc 1 210 0
 478              		mov	r2, #131
 479 0354 0EC2A0E3 		.loc 1 211 0
 480              		add	r0, r0, #10880
 481 0358 110880E2 		.loc 1 208 0
 482              		str	r3, [ip, #0]
 483 035c 03498CE2 		.loc 1 211 0
 484              		add	r0, r0, #8
 485 0360 5030A0E3 		.loc 1 210 0
 486 0364 0BC98CE2 		str	r2, [r4, #12]
 487              		.loc 1 211 0
 488 0368 8320A0E3 		bl	__aeabi_uidiv
 489              	.LVL36:
 490 036c AA0D80E2 		.loc 1 215 0
 491              		mov	r5, #7
 492 0370 00308CE5 	.LVL37:
 493              		.loc 1 213 0
 494 0374 080080E2 		and	r2, r0, #255
 495              		.loc 1 214 0
 496 0378 0C2084E5 		mov	r3, #3
 497              		.loc 1 212 0
 498 037c FEFFFFEB 		mov	r0, r0, lsr #8
 499              		str	r0, [r4, #4]
 500              		.loc 1 217 0
 501 0380 0750A0E3 		ldr	r1, .L56
 502              		.loc 1 213 0
 503              		str	r2, [r4, #0]
 504 0384 FF2000E2 		.loc 1 217 0
 505              		mov	r0, #6
 506 0388 0330A0E3 		.loc 1 214 0
ARM GAS  C:\Users\Chris\AppData\Local\Temp/cc6jaaaa.s 			page 15


 507              		str	r3, [r4, #12]
 508 038c 2004A0E1 		.loc 1 217 0
 509 0390 040084E5 		mov	r2, #1
 510              		.loc 1 215 0
 511 0394 AC109FE5 		str	r5, [r4, #8]
 512              		.loc 1 217 0
 513 0398 002084E5 		bl	_Z11install_irqmPvm
 514              		cmp	r0, #0
 515 039c 0600A0E3 		.loc 1 222 0
 516              		strne	r5, [r4, #4]
 517 03a0 0C3084E5 		movne	r0, #1
 518              		.loc 1 217 0
 519 03a4 0120A0E3 		bne	.L52
 520              		b	.L51
 521 03a8 085084E5 	.LVL38:
 522              	.L55:
 523 03ac FEFFFFEB 		.loc 1 230 0
 524 03b0 000050E3 		mov	ip, #-536870912
 525              		add	ip, ip, #180224
 526 03b4 04508415 		ldr	r3, [ip, #0]
 527 03b8 0100A013 		orr	r3, r3, #1073741824
 528              		str	r3, [ip, #0]
 529 03bc E1FFFF1A 		.loc 1 231 0
 530 03c0 DFFFFFEA 		ldr	r2, [ip, #4]
 531              		.loc 1 233 0
 532              		mov	r4, #-536870912
 533              		.loc 1 234 0
 534 03c4 0EC2A0E3 		mov	r0, #1114112
 535 03c8 0BC98CE2 		.loc 1 233 0
 536 03cc 00309CE5 		add	r4, r4, #65536
 537 03d0 013183E3 		.loc 1 231 0
 538 03d4 00308CE5 		orr	r2, r2, #1
 539              		.loc 1 233 0
 540 03d8 04209CE5 		mov	r3, #131
 541              		.loc 1 234 0
 542 03dc 0E42A0E3 		add	r0, r0, #10880
 543              		.loc 1 231 0
 544 03e0 1108A0E3 		str	r2, [ip, #4]
 545              		.loc 1 234 0
 546 03e4 014884E2 		add	r0, r0, #8
 547              		.loc 1 233 0
 548 03e8 012082E3 		str	r3, [r4, #12]
 549              		.loc 1 234 0
 550 03ec 8330A0E3 		bl	__aeabi_uidiv
 551              	.LVL39:
 552 03f0 AA0D80E2 		.loc 1 238 0
 553              		mov	r6, #7
 554 03f4 04208CE5 		.loc 1 236 0
 555              		and	r2, r0, #255
 556 03f8 080080E2 		.loc 1 237 0
 557              		mov	r3, #3
 558 03fc 0C3084E5 		.loc 1 235 0
 559              		mov	r0, r0, lsr #8
 560 0400 FEFFFFEB 		str	r0, [r4, #4]
 561              		.loc 1 240 0
 562              		ldr	r1, .L56+4
 563 0404 0760A0E3 		.loc 1 236 0
ARM GAS  C:\Users\Chris\AppData\Local\Temp/cc6jaaaa.s 			page 16


 564              		str	r2, [r4, #0]
 565 0408 FF2000E2 		.loc 1 240 0
 566              		mov	r0, r6
 567 040c 0330A0E3 		.loc 1 237 0
 568              		str	r3, [r4, #12]
 569 0410 2004A0E1 		.loc 1 240 0
 570 0414 040084E5 		mov	r2, r5
 571              		.loc 1 238 0
 572 0418 2C109FE5 		str	r6, [r4, #8]
 573              		.loc 1 240 0
 574 041c 002084E5 		bl	_Z11install_irqmPvm
 575              		cmp	r0, #0
 576 0420 0600A0E1 		.loc 1 245 0
 577              		strne	r6, [r4, #4]
 578 0424 0C3084E5 		movne	r0, r5
 579              		.loc 1 240 0
 580 0428 0520A0E1 		bne	.L52
 581              		b	.L51
 582 042c 086084E5 	.L57:
 583              		.align	2
 584 0430 FEFFFFEB 	.L56:
 585 0434 000050E3 		.word	_Z12UART0Handlerv
 586              		.word	_Z12UART1Handlerv
 587 0438 04608415 	.LBE7:
 588 043c 0500A011 	.LFE4:
 589              		.fnend
 590 0440 C0FFFF1A 		.size	_Z8UARTInitjm, .-_Z8UARTInitjm
 591 0444 BEFFFFEA 		.global	UART0Status
 592              		.global	UART1Status
 593              		.global	UART0TxEmpty
 594              		.global	UART1TxEmpty
 595 0448 00000000 		.global	UART0Buffer
 596 044c 00000000 		.global	UART1Buffer
 597              		.global	UART0Count
 598              		.global	UART1Count
 599              		.data
 600              		.set	.LANCHOR1,. + 0
 601              		.type	UART0TxEmpty, %object
 602              		.size	UART0TxEmpty, 1
 603              	UART0TxEmpty:
 604              		.byte	1
 605              		.type	UART1TxEmpty, %object
 606              		.size	UART1TxEmpty, 1
 607              	UART1TxEmpty:
 608              		.byte	1
 609              		.bss
 610              		.align	2
 611              		.set	.LANCHOR0,. + 0
 612              		.type	UART0Status, %object
 613              		.size	UART0Status, 4
 614 0000 01       	UART0Status:
 615              		.space	4
 616              		.type	UART0Count, %object
 617              		.size	UART0Count, 4
 618 0001 01       	UART0Count:
 619              		.space	4
 620              		.type	UART0Buffer, %object
ARM GAS  C:\Users\Chris\AppData\Local\Temp/cc6jaaaa.s 			page 17


 621              		.size	UART0Buffer, 64
 622              	UART0Buffer:
 623              		.space	64
 624              		.type	UART1Status, %object
 625 0000 00000000 		.size	UART1Status, 4
 626              	UART1Status:
 627              		.space	4
 628              		.type	UART1Count, %object
 629 0004 00000000 		.size	UART1Count, 4
 630              	UART1Count:
 631              		.space	4
 632              		.type	UART1Buffer, %object
 633 0008 00000000 		.size	UART1Buffer, 64
 633      00000000 
 633      00000000 
 633      00000000 
 633      00000000 
 634              	UART1Buffer:
 635              		.space	64
 636              		.section	.debug_frame,"",%progbits
 637 0048 00000000 	.Lframe0:
 638              		.4byte	.LECIE0-.LSCIE0
 639              	.LSCIE0:
 640              		.4byte	0xffffffff
 641 004c 00000000 		.byte	0x1
 642              		.ascii	"\000"
 643              		.uleb128 0x1
 644              		.sleb128 -4
 645 0050 00000000 		.byte	0xe
 645      00000000 
 645      00000000 
 645      00000000 
 645      00000000 
 646              		.byte	0xc
 647              		.uleb128 0xd
 648 0000 0C000000 		.uleb128 0x0
 649              		.align	2
 650 0004 FFFFFFFF 	.LECIE0:
 651 0008 01       	.LSFDE0:
 652 0009 00       		.4byte	.LEFDE0-.LASFDE0
 653 000a 01       	.LASFDE0:
 654 000b 7C       		.4byte	.Lframe0
 655 000c 0E       		.4byte	.LFB2
 656 000d 0C       		.4byte	.LFE2-.LFB2
 657 000e 0D       		.byte	0x4
 658 000f 00       		.4byte	.LCFI0-.LFB2
 659              		.byte	0xe
 660              		.uleb128 0x4
 661              		.byte	0x4
 662 0010 14000000 		.4byte	.LCFI1-.LCFI0
 663              		.byte	0xe
 664 0014 00000000 		.uleb128 0x10
 665 0018 00000000 		.byte	0x84
 666 001c 40010000 		.uleb128 0x1
 667 0020 44       		.align	2
 668              	.LEFDE0:
 669 0021 0E       	.LSFDE2:
ARM GAS  C:\Users\Chris\AppData\Local\Temp/cc6jaaaa.s 			page 18


 670 0022 04       		.4byte	.LEFDE2-.LASFDE2
 671 0023 44       	.LASFDE2:
 672              		.4byte	.Lframe0
 673 0024 0E       		.4byte	.LFB3
 674 0025 10       		.4byte	.LFE3-.LFB3
 675 0026 84       		.align	2
 676 0027 01       	.LEFDE2:
 677              	.LSFDE4:
 678              		.4byte	.LEFDE4-.LASFDE4
 679              	.LASFDE4:
 680 0028 0C000000 		.4byte	.Lframe0
 681              		.4byte	.LFB5
 682 002c 00000000 		.4byte	.LFE5-.LFB5
 683 0030 40010000 		.byte	0x4
 684 0034 40010000 		.4byte	.LCFI2-.LFB5
 685              		.byte	0xe
 686              		.uleb128 0xc
 687              		.byte	0x86
 688 0038 18000000 		.uleb128 0x1
 689              		.byte	0x85
 690 003c 00000000 		.uleb128 0x2
 691 0040 80020000 		.byte	0x84
 692 0044 A8000000 		.uleb128 0x3
 693 0048 48       		.align	2
 694              	.LEFDE4:
 695 0049 0E       	.LSFDE6:
 696 004a 0C       		.4byte	.LEFDE6-.LASFDE6
 697 004b 86       	.LASFDE6:
 698 004c 01       		.4byte	.Lframe0
 699 004d 85       		.4byte	.LFB4
 700 004e 02       		.4byte	.LFE4-.LFB4
 701 004f 84       		.byte	0x4
 702 0050 03       		.4byte	.LCFI3-.LFB4
 703 0051 000000   		.byte	0xd
 704              		.uleb128 0xc
 705              		.byte	0x4
 706 0054 24000000 		.4byte	.LCFI4-.LCFI3
 707              		.byte	0x8e
 708 0058 00000000 		.uleb128 0x2
 709 005c 28030000 		.byte	0x8d
 710 0060 28010000 		.uleb128 0x3
 711 0064 44       		.byte	0x8b
 712              		.uleb128 0x4
 713 0065 0D       		.byte	0x87
 714 0066 0C       		.uleb128 0x5
 715 0067 44       		.byte	0x86
 716              		.uleb128 0x6
 717 0068 8E       		.byte	0x85
 718 0069 02       		.uleb128 0x7
 719 006a 8D       		.byte	0x84
 720 006b 03       		.uleb128 0x8
 721 006c 8B       		.byte	0x4
 722 006d 04       		.4byte	.LCFI5-.LCFI4
 723 006e 87       		.byte	0xc
 724 006f 05       		.uleb128 0xb
 725 0070 86       		.uleb128 0x4
 726 0071 06       		.align	2
ARM GAS  C:\Users\Chris\AppData\Local\Temp/cc6jaaaa.s 			page 19


 727 0072 85       	.LEFDE6:
 728 0073 07       		.text
 729 0074 84       	.Letext0: